
Lab1.elf:     file format elf32-littlearm

Sections:
Idx Name          Size      VMA       LMA       File off  Algn
  0 .isr_vector   000000bc  08000000  08000000  00001000  2**0
                  CONTENTS, ALLOC, LOAD, READONLY, DATA
  1 .text         00002c80  080000bc  080000bc  000010bc  2**2
                  CONTENTS, ALLOC, LOAD, READONLY, CODE
  2 .rodata       00000078  08002d3c  08002d3c  00003d3c  2**2
                  CONTENTS, ALLOC, LOAD, READONLY, DATA
  3 .ARM.extab    00000000  08002db4  08002db4  00004010  2**0
                  CONTENTS, READONLY
  4 .ARM          00000000  08002db4  08002db4  00004010  2**0
                  CONTENTS, READONLY
  5 .preinit_array 00000000  08002db4  08002db4  00004010  2**0
                  CONTENTS, ALLOC, LOAD, DATA
  6 .init_array   00000004  08002db4  08002db4  00003db4  2**2
                  CONTENTS, ALLOC, LOAD, READONLY, DATA
  7 .fini_array   00000004  08002db8  08002db8  00003db8  2**2
                  CONTENTS, ALLOC, LOAD, READONLY, DATA
  8 .data         00000010  20000000  08002dbc  00004000  2**2
                  CONTENTS, ALLOC, LOAD, DATA
  9 .bss          000000f0  20000010  08002dcc  00004010  2**2
                  ALLOC
 10 ._user_heap_stack 00000600  20000100  08002dcc  00004100  2**0
                  ALLOC
 11 .ARM.attributes 00000028  00000000  00000000  00004010  2**0
                  CONTENTS, READONLY
 12 .comment      00000043  00000000  00000000  00004038  2**0
                  CONTENTS, READONLY
 13 .debug_frame  0000023c  00000000  00000000  0000407c  2**2
                  CONTENTS, READONLY, DEBUGGING, OCTETS

Disassembly of section .text:

080000bc <__do_global_dtors_aux>:
 80000bc:	b510      	push	{r4, lr}
 80000be:	4c06      	ldr	r4, [pc, #24]	@ (80000d8 <__do_global_dtors_aux+0x1c>)
 80000c0:	7823      	ldrb	r3, [r4, #0]
 80000c2:	2b00      	cmp	r3, #0
 80000c4:	d107      	bne.n	80000d6 <__do_global_dtors_aux+0x1a>
 80000c6:	4b05      	ldr	r3, [pc, #20]	@ (80000dc <__do_global_dtors_aux+0x20>)
 80000c8:	2b00      	cmp	r3, #0
 80000ca:	d002      	beq.n	80000d2 <__do_global_dtors_aux+0x16>
 80000cc:	4804      	ldr	r0, [pc, #16]	@ (80000e0 <__do_global_dtors_aux+0x24>)
 80000ce:	e000      	b.n	80000d2 <__do_global_dtors_aux+0x16>
 80000d0:	bf00      	nop
 80000d2:	2301      	movs	r3, #1
 80000d4:	7023      	strb	r3, [r4, #0]
 80000d6:	bd10      	pop	{r4, pc}
 80000d8:	20000010 	.word	0x20000010
 80000dc:	00000000 	.word	0x00000000
 80000e0:	08002d24 	.word	0x08002d24

080000e4 <frame_dummy>:
 80000e4:	4b04      	ldr	r3, [pc, #16]	@ (80000f8 <frame_dummy+0x14>)
 80000e6:	b510      	push	{r4, lr}
 80000e8:	2b00      	cmp	r3, #0
 80000ea:	d003      	beq.n	80000f4 <frame_dummy+0x10>
 80000ec:	4903      	ldr	r1, [pc, #12]	@ (80000fc <frame_dummy+0x18>)
 80000ee:	4804      	ldr	r0, [pc, #16]	@ (8000100 <frame_dummy+0x1c>)
 80000f0:	e000      	b.n	80000f4 <frame_dummy+0x10>
 80000f2:	bf00      	nop
 80000f4:	bd10      	pop	{r4, pc}
 80000f6:	46c0      	nop			@ (mov r8, r8)
 80000f8:	00000000 	.word	0x00000000
 80000fc:	20000014 	.word	0x20000014
 8000100:	08002d24 	.word	0x08002d24

08000104 <__gnu_thumb1_case_sqi>:
 8000104:	b402      	push	{r1}
 8000106:	4671      	mov	r1, lr
 8000108:	0849      	lsrs	r1, r1, #1
 800010a:	0049      	lsls	r1, r1, #1
 800010c:	5609      	ldrsb	r1, [r1, r0]
 800010e:	0049      	lsls	r1, r1, #1
 8000110:	448e      	add	lr, r1
 8000112:	bc02      	pop	{r1}
 8000114:	4770      	bx	lr
 8000116:	46c0      	nop			@ (mov r8, r8)

08000118 <__udivsi3>:
 8000118:	2200      	movs	r2, #0
 800011a:	0843      	lsrs	r3, r0, #1
 800011c:	428b      	cmp	r3, r1
 800011e:	d374      	bcc.n	800020a <__udivsi3+0xf2>
 8000120:	0903      	lsrs	r3, r0, #4
 8000122:	428b      	cmp	r3, r1
 8000124:	d35f      	bcc.n	80001e6 <__udivsi3+0xce>
 8000126:	0a03      	lsrs	r3, r0, #8
 8000128:	428b      	cmp	r3, r1
 800012a:	d344      	bcc.n	80001b6 <__udivsi3+0x9e>
 800012c:	0b03      	lsrs	r3, r0, #12
 800012e:	428b      	cmp	r3, r1
 8000130:	d328      	bcc.n	8000184 <__udivsi3+0x6c>
 8000132:	0c03      	lsrs	r3, r0, #16
 8000134:	428b      	cmp	r3, r1
 8000136:	d30d      	bcc.n	8000154 <__udivsi3+0x3c>
 8000138:	22ff      	movs	r2, #255	@ 0xff
 800013a:	0209      	lsls	r1, r1, #8
 800013c:	ba12      	rev	r2, r2
 800013e:	0c03      	lsrs	r3, r0, #16
 8000140:	428b      	cmp	r3, r1
 8000142:	d302      	bcc.n	800014a <__udivsi3+0x32>
 8000144:	1212      	asrs	r2, r2, #8
 8000146:	0209      	lsls	r1, r1, #8
 8000148:	d065      	beq.n	8000216 <__udivsi3+0xfe>
 800014a:	0b03      	lsrs	r3, r0, #12
 800014c:	428b      	cmp	r3, r1
 800014e:	d319      	bcc.n	8000184 <__udivsi3+0x6c>
 8000150:	e000      	b.n	8000154 <__udivsi3+0x3c>
 8000152:	0a09      	lsrs	r1, r1, #8
 8000154:	0bc3      	lsrs	r3, r0, #15
 8000156:	428b      	cmp	r3, r1
 8000158:	d301      	bcc.n	800015e <__udivsi3+0x46>
 800015a:	03cb      	lsls	r3, r1, #15
 800015c:	1ac0      	subs	r0, r0, r3
 800015e:	4152      	adcs	r2, r2
 8000160:	0b83      	lsrs	r3, r0, #14
 8000162:	428b      	cmp	r3, r1
 8000164:	d301      	bcc.n	800016a <__udivsi3+0x52>
 8000166:	038b      	lsls	r3, r1, #14
 8000168:	1ac0      	subs	r0, r0, r3
 800016a:	4152      	adcs	r2, r2
 800016c:	0b43      	lsrs	r3, r0, #13
 800016e:	428b      	cmp	r3, r1
 8000170:	d301      	bcc.n	8000176 <__udivsi3+0x5e>
 8000172:	034b      	lsls	r3, r1, #13
 8000174:	1ac0      	subs	r0, r0, r3
 8000176:	4152      	adcs	r2, r2
 8000178:	0b03      	lsrs	r3, r0, #12
 800017a:	428b      	cmp	r3, r1
 800017c:	d301      	bcc.n	8000182 <__udivsi3+0x6a>
 800017e:	030b      	lsls	r3, r1, #12
 8000180:	1ac0      	subs	r0, r0, r3
 8000182:	4152      	adcs	r2, r2
 8000184:	0ac3      	lsrs	r3, r0, #11
 8000186:	428b      	cmp	r3, r1
 8000188:	d301      	bcc.n	800018e <__udivsi3+0x76>
 800018a:	02cb      	lsls	r3, r1, #11
 800018c:	1ac0      	subs	r0, r0, r3
 800018e:	4152      	adcs	r2, r2
 8000190:	0a83      	lsrs	r3, r0, #10
 8000192:	428b      	cmp	r3, r1
 8000194:	d301      	bcc.n	800019a <__udivsi3+0x82>
 8000196:	028b      	lsls	r3, r1, #10
 8000198:	1ac0      	subs	r0, r0, r3
 800019a:	4152      	adcs	r2, r2
 800019c:	0a43      	lsrs	r3, r0, #9
 800019e:	428b      	cmp	r3, r1
 80001a0:	d301      	bcc.n	80001a6 <__udivsi3+0x8e>
 80001a2:	024b      	lsls	r3, r1, #9
 80001a4:	1ac0      	subs	r0, r0, r3
 80001a6:	4152      	adcs	r2, r2
 80001a8:	0a03      	lsrs	r3, r0, #8
 80001aa:	428b      	cmp	r3, r1
 80001ac:	d301      	bcc.n	80001b2 <__udivsi3+0x9a>
 80001ae:	020b      	lsls	r3, r1, #8
 80001b0:	1ac0      	subs	r0, r0, r3
 80001b2:	4152      	adcs	r2, r2
 80001b4:	d2cd      	bcs.n	8000152 <__udivsi3+0x3a>
 80001b6:	09c3      	lsrs	r3, r0, #7
 80001b8:	428b      	cmp	r3, r1
 80001ba:	d301      	bcc.n	80001c0 <__udivsi3+0xa8>
 80001bc:	01cb      	lsls	r3, r1, #7
 80001be:	1ac0      	subs	r0, r0, r3
 80001c0:	4152      	adcs	r2, r2
 80001c2:	0983      	lsrs	r3, r0, #6
 80001c4:	428b      	cmp	r3, r1
 80001c6:	d301      	bcc.n	80001cc <__udivsi3+0xb4>
 80001c8:	018b      	lsls	r3, r1, #6
 80001ca:	1ac0      	subs	r0, r0, r3
 80001cc:	4152      	adcs	r2, r2
 80001ce:	0943      	lsrs	r3, r0, #5
 80001d0:	428b      	cmp	r3, r1
 80001d2:	d301      	bcc.n	80001d8 <__udivsi3+0xc0>
 80001d4:	014b      	lsls	r3, r1, #5
 80001d6:	1ac0      	subs	r0, r0, r3
 80001d8:	4152      	adcs	r2, r2
 80001da:	0903      	lsrs	r3, r0, #4
 80001dc:	428b      	cmp	r3, r1
 80001de:	d301      	bcc.n	80001e4 <__udivsi3+0xcc>
 80001e0:	010b      	lsls	r3, r1, #4
 80001e2:	1ac0      	subs	r0, r0, r3
 80001e4:	4152      	adcs	r2, r2
 80001e6:	08c3      	lsrs	r3, r0, #3
 80001e8:	428b      	cmp	r3, r1
 80001ea:	d301      	bcc.n	80001f0 <__udivsi3+0xd8>
 80001ec:	00cb      	lsls	r3, r1, #3
 80001ee:	1ac0      	subs	r0, r0, r3
 80001f0:	4152      	adcs	r2, r2
 80001f2:	0883      	lsrs	r3, r0, #2
 80001f4:	428b      	cmp	r3, r1
 80001f6:	d301      	bcc.n	80001fc <__udivsi3+0xe4>
 80001f8:	008b      	lsls	r3, r1, #2
 80001fa:	1ac0      	subs	r0, r0, r3
 80001fc:	4152      	adcs	r2, r2
 80001fe:	0843      	lsrs	r3, r0, #1
 8000200:	428b      	cmp	r3, r1
 8000202:	d301      	bcc.n	8000208 <__udivsi3+0xf0>
 8000204:	004b      	lsls	r3, r1, #1
 8000206:	1ac0      	subs	r0, r0, r3
 8000208:	4152      	adcs	r2, r2
 800020a:	1a41      	subs	r1, r0, r1
 800020c:	d200      	bcs.n	8000210 <__udivsi3+0xf8>
 800020e:	4601      	mov	r1, r0
 8000210:	4152      	adcs	r2, r2
 8000212:	4610      	mov	r0, r2
 8000214:	4770      	bx	lr
 8000216:	e7ff      	b.n	8000218 <__udivsi3+0x100>
 8000218:	b501      	push	{r0, lr}
 800021a:	2000      	movs	r0, #0
 800021c:	f000 f8f0 	bl	8000400 <__aeabi_idiv0>
 8000220:	bd02      	pop	{r1, pc}
 8000222:	46c0      	nop			@ (mov r8, r8)

08000224 <__aeabi_uidivmod>:
 8000224:	2900      	cmp	r1, #0
 8000226:	d0f7      	beq.n	8000218 <__udivsi3+0x100>
 8000228:	e776      	b.n	8000118 <__udivsi3>
 800022a:	4770      	bx	lr

0800022c <__divsi3>:
 800022c:	4603      	mov	r3, r0
 800022e:	430b      	orrs	r3, r1
 8000230:	d47f      	bmi.n	8000332 <__divsi3+0x106>
 8000232:	2200      	movs	r2, #0
 8000234:	0843      	lsrs	r3, r0, #1
 8000236:	428b      	cmp	r3, r1
 8000238:	d374      	bcc.n	8000324 <__divsi3+0xf8>
 800023a:	0903      	lsrs	r3, r0, #4
 800023c:	428b      	cmp	r3, r1
 800023e:	d35f      	bcc.n	8000300 <__divsi3+0xd4>
 8000240:	0a03      	lsrs	r3, r0, #8
 8000242:	428b      	cmp	r3, r1
 8000244:	d344      	bcc.n	80002d0 <__divsi3+0xa4>
 8000246:	0b03      	lsrs	r3, r0, #12
 8000248:	428b      	cmp	r3, r1
 800024a:	d328      	bcc.n	800029e <__divsi3+0x72>
 800024c:	0c03      	lsrs	r3, r0, #16
 800024e:	428b      	cmp	r3, r1
 8000250:	d30d      	bcc.n	800026e <__divsi3+0x42>
 8000252:	22ff      	movs	r2, #255	@ 0xff
 8000254:	0209      	lsls	r1, r1, #8
 8000256:	ba12      	rev	r2, r2
 8000258:	0c03      	lsrs	r3, r0, #16
 800025a:	428b      	cmp	r3, r1
 800025c:	d302      	bcc.n	8000264 <__divsi3+0x38>
 800025e:	1212      	asrs	r2, r2, #8
 8000260:	0209      	lsls	r1, r1, #8
 8000262:	d065      	beq.n	8000330 <__divsi3+0x104>
 8000264:	0b03      	lsrs	r3, r0, #12
 8000266:	428b      	cmp	r3, r1
 8000268:	d319      	bcc.n	800029e <__divsi3+0x72>
 800026a:	e000      	b.n	800026e <__divsi3+0x42>
 800026c:	0a09      	lsrs	r1, r1, #8
 800026e:	0bc3      	lsrs	r3, r0, #15
 8000270:	428b      	cmp	r3, r1
 8000272:	d301      	bcc.n	8000278 <__divsi3+0x4c>
 8000274:	03cb      	lsls	r3, r1, #15
 8000276:	1ac0      	subs	r0, r0, r3
 8000278:	4152      	adcs	r2, r2
 800027a:	0b83      	lsrs	r3, r0, #14
 800027c:	428b      	cmp	r3, r1
 800027e:	d301      	bcc.n	8000284 <__divsi3+0x58>
 8000280:	038b      	lsls	r3, r1, #14
 8000282:	1ac0      	subs	r0, r0, r3
 8000284:	4152      	adcs	r2, r2
 8000286:	0b43      	lsrs	r3, r0, #13
 8000288:	428b      	cmp	r3, r1
 800028a:	d301      	bcc.n	8000290 <__divsi3+0x64>
 800028c:	034b      	lsls	r3, r1, #13
 800028e:	1ac0      	subs	r0, r0, r3
 8000290:	4152      	adcs	r2, r2
 8000292:	0b03      	lsrs	r3, r0, #12
 8000294:	428b      	cmp	r3, r1
 8000296:	d301      	bcc.n	800029c <__divsi3+0x70>
 8000298:	030b      	lsls	r3, r1, #12
 800029a:	1ac0      	subs	r0, r0, r3
 800029c:	4152      	adcs	r2, r2
 800029e:	0ac3      	lsrs	r3, r0, #11
 80002a0:	428b      	cmp	r3, r1
 80002a2:	d301      	bcc.n	80002a8 <__divsi3+0x7c>
 80002a4:	02cb      	lsls	r3, r1, #11
 80002a6:	1ac0      	subs	r0, r0, r3
 80002a8:	4152      	adcs	r2, r2
 80002aa:	0a83      	lsrs	r3, r0, #10
 80002ac:	428b      	cmp	r3, r1
 80002ae:	d301      	bcc.n	80002b4 <__divsi3+0x88>
 80002b0:	028b      	lsls	r3, r1, #10
 80002b2:	1ac0      	subs	r0, r0, r3
 80002b4:	4152      	adcs	r2, r2
 80002b6:	0a43      	lsrs	r3, r0, #9
 80002b8:	428b      	cmp	r3, r1
 80002ba:	d301      	bcc.n	80002c0 <__divsi3+0x94>
 80002bc:	024b      	lsls	r3, r1, #9
 80002be:	1ac0      	subs	r0, r0, r3
 80002c0:	4152      	adcs	r2, r2
 80002c2:	0a03      	lsrs	r3, r0, #8
 80002c4:	428b      	cmp	r3, r1
 80002c6:	d301      	bcc.n	80002cc <__divsi3+0xa0>
 80002c8:	020b      	lsls	r3, r1, #8
 80002ca:	1ac0      	subs	r0, r0, r3
 80002cc:	4152      	adcs	r2, r2
 80002ce:	d2cd      	bcs.n	800026c <__divsi3+0x40>
 80002d0:	09c3      	lsrs	r3, r0, #7
 80002d2:	428b      	cmp	r3, r1
 80002d4:	d301      	bcc.n	80002da <__divsi3+0xae>
 80002d6:	01cb      	lsls	r3, r1, #7
 80002d8:	1ac0      	subs	r0, r0, r3
 80002da:	4152      	adcs	r2, r2
 80002dc:	0983      	lsrs	r3, r0, #6
 80002de:	428b      	cmp	r3, r1
 80002e0:	d301      	bcc.n	80002e6 <__divsi3+0xba>
 80002e2:	018b      	lsls	r3, r1, #6
 80002e4:	1ac0      	subs	r0, r0, r3
 80002e6:	4152      	adcs	r2, r2
 80002e8:	0943      	lsrs	r3, r0, #5
 80002ea:	428b      	cmp	r3, r1
 80002ec:	d301      	bcc.n	80002f2 <__divsi3+0xc6>
 80002ee:	014b      	lsls	r3, r1, #5
 80002f0:	1ac0      	subs	r0, r0, r3
 80002f2:	4152      	adcs	r2, r2
 80002f4:	0903      	lsrs	r3, r0, #4
 80002f6:	428b      	cmp	r3, r1
 80002f8:	d301      	bcc.n	80002fe <__divsi3+0xd2>
 80002fa:	010b      	lsls	r3, r1, #4
 80002fc:	1ac0      	subs	r0, r0, r3
 80002fe:	4152      	adcs	r2, r2
 8000300:	08c3      	lsrs	r3, r0, #3
 8000302:	428b      	cmp	r3, r1
 8000304:	d301      	bcc.n	800030a <__divsi3+0xde>
 8000306:	00cb      	lsls	r3, r1, #3
 8000308:	1ac0      	subs	r0, r0, r3
 800030a:	4152      	adcs	r2, r2
 800030c:	0883      	lsrs	r3, r0, #2
 800030e:	428b      	cmp	r3, r1
 8000310:	d301      	bcc.n	8000316 <__divsi3+0xea>
 8000312:	008b      	lsls	r3, r1, #2
 8000314:	1ac0      	subs	r0, r0, r3
 8000316:	4152      	adcs	r2, r2
 8000318:	0843      	lsrs	r3, r0, #1
 800031a:	428b      	cmp	r3, r1
 800031c:	d301      	bcc.n	8000322 <__divsi3+0xf6>
 800031e:	004b      	lsls	r3, r1, #1
 8000320:	1ac0      	subs	r0, r0, r3
 8000322:	4152      	adcs	r2, r2
 8000324:	1a41      	subs	r1, r0, r1
 8000326:	d200      	bcs.n	800032a <__divsi3+0xfe>
 8000328:	4601      	mov	r1, r0
 800032a:	4152      	adcs	r2, r2
 800032c:	4610      	mov	r0, r2
 800032e:	4770      	bx	lr
 8000330:	e05d      	b.n	80003ee <__divsi3+0x1c2>
 8000332:	0fca      	lsrs	r2, r1, #31
 8000334:	d000      	beq.n	8000338 <__divsi3+0x10c>
 8000336:	4249      	negs	r1, r1
 8000338:	1003      	asrs	r3, r0, #32
 800033a:	d300      	bcc.n	800033e <__divsi3+0x112>
 800033c:	4240      	negs	r0, r0
 800033e:	4053      	eors	r3, r2
 8000340:	2200      	movs	r2, #0
 8000342:	469c      	mov	ip, r3
 8000344:	0903      	lsrs	r3, r0, #4
 8000346:	428b      	cmp	r3, r1
 8000348:	d32d      	bcc.n	80003a6 <__divsi3+0x17a>
 800034a:	0a03      	lsrs	r3, r0, #8
 800034c:	428b      	cmp	r3, r1
 800034e:	d312      	bcc.n	8000376 <__divsi3+0x14a>
 8000350:	22fc      	movs	r2, #252	@ 0xfc
 8000352:	0189      	lsls	r1, r1, #6
 8000354:	ba12      	rev	r2, r2
 8000356:	0a03      	lsrs	r3, r0, #8
 8000358:	428b      	cmp	r3, r1
 800035a:	d30c      	bcc.n	8000376 <__divsi3+0x14a>
 800035c:	0189      	lsls	r1, r1, #6
 800035e:	1192      	asrs	r2, r2, #6
 8000360:	428b      	cmp	r3, r1
 8000362:	d308      	bcc.n	8000376 <__divsi3+0x14a>
 8000364:	0189      	lsls	r1, r1, #6
 8000366:	1192      	asrs	r2, r2, #6
 8000368:	428b      	cmp	r3, r1
 800036a:	d304      	bcc.n	8000376 <__divsi3+0x14a>
 800036c:	0189      	lsls	r1, r1, #6
 800036e:	d03a      	beq.n	80003e6 <__divsi3+0x1ba>
 8000370:	1192      	asrs	r2, r2, #6
 8000372:	e000      	b.n	8000376 <__divsi3+0x14a>
 8000374:	0989      	lsrs	r1, r1, #6
 8000376:	09c3      	lsrs	r3, r0, #7
 8000378:	428b      	cmp	r3, r1
 800037a:	d301      	bcc.n	8000380 <__divsi3+0x154>
 800037c:	01cb      	lsls	r3, r1, #7
 800037e:	1ac0      	subs	r0, r0, r3
 8000380:	4152      	adcs	r2, r2
 8000382:	0983      	lsrs	r3, r0, #6
 8000384:	428b      	cmp	r3, r1
 8000386:	d301      	bcc.n	800038c <__divsi3+0x160>
 8000388:	018b      	lsls	r3, r1, #6
 800038a:	1ac0      	subs	r0, r0, r3
 800038c:	4152      	adcs	r2, r2
 800038e:	0943      	lsrs	r3, r0, #5
 8000390:	428b      	cmp	r3, r1
 8000392:	d301      	bcc.n	8000398 <__divsi3+0x16c>
 8000394:	014b      	lsls	r3, r1, #5
 8000396:	1ac0      	subs	r0, r0, r3
 8000398:	4152      	adcs	r2, r2
 800039a:	0903      	lsrs	r3, r0, #4
 800039c:	428b      	cmp	r3, r1
 800039e:	d301      	bcc.n	80003a4 <__divsi3+0x178>
 80003a0:	010b      	lsls	r3, r1, #4
 80003a2:	1ac0      	subs	r0, r0, r3
 80003a4:	4152      	adcs	r2, r2
 80003a6:	08c3      	lsrs	r3, r0, #3
 80003a8:	428b      	cmp	r3, r1
 80003aa:	d301      	bcc.n	80003b0 <__divsi3+0x184>
 80003ac:	00cb      	lsls	r3, r1, #3
 80003ae:	1ac0      	subs	r0, r0, r3
 80003b0:	4152      	adcs	r2, r2
 80003b2:	0883      	lsrs	r3, r0, #2
 80003b4:	428b      	cmp	r3, r1
 80003b6:	d301      	bcc.n	80003bc <__divsi3+0x190>
 80003b8:	008b      	lsls	r3, r1, #2
 80003ba:	1ac0      	subs	r0, r0, r3
 80003bc:	4152      	adcs	r2, r2
 80003be:	d2d9      	bcs.n	8000374 <__divsi3+0x148>
 80003c0:	0843      	lsrs	r3, r0, #1
 80003c2:	428b      	cmp	r3, r1
 80003c4:	d301      	bcc.n	80003ca <__divsi3+0x19e>
 80003c6:	004b      	lsls	r3, r1, #1
 80003c8:	1ac0      	subs	r0, r0, r3
 80003ca:	4152      	adcs	r2, r2
 80003cc:	1a41      	subs	r1, r0, r1
 80003ce:	d200      	bcs.n	80003d2 <__divsi3+0x1a6>
 80003d0:	4601      	mov	r1, r0
 80003d2:	4663      	mov	r3, ip
 80003d4:	4152      	adcs	r2, r2
 80003d6:	105b      	asrs	r3, r3, #1
 80003d8:	4610      	mov	r0, r2
 80003da:	d301      	bcc.n	80003e0 <__divsi3+0x1b4>
 80003dc:	4240      	negs	r0, r0
 80003de:	2b00      	cmp	r3, #0
 80003e0:	d500      	bpl.n	80003e4 <__divsi3+0x1b8>
 80003e2:	4249      	negs	r1, r1
 80003e4:	4770      	bx	lr
 80003e6:	4663      	mov	r3, ip
 80003e8:	105b      	asrs	r3, r3, #1
 80003ea:	d300      	bcc.n	80003ee <__divsi3+0x1c2>
 80003ec:	4240      	negs	r0, r0
 80003ee:	b501      	push	{r0, lr}
 80003f0:	2000      	movs	r0, #0
 80003f2:	f000 f805 	bl	8000400 <__aeabi_idiv0>
 80003f6:	bd02      	pop	{r1, pc}

080003f8 <__aeabi_idivmod>:
 80003f8:	2900      	cmp	r1, #0
 80003fa:	d0f8      	beq.n	80003ee <__divsi3+0x1c2>
 80003fc:	e716      	b.n	800022c <__divsi3>
 80003fe:	4770      	bx	lr

08000400 <__aeabi_idiv0>:
 8000400:	4770      	bx	lr
 8000402:	46c0      	nop			@ (mov r8, r8)

08000404 <__aeabi_d2uiz>:
 8000404:	b570      	push	{r4, r5, r6, lr}
 8000406:	2200      	movs	r2, #0
 8000408:	4b0c      	ldr	r3, [pc, #48]	@ (800043c <__aeabi_d2uiz+0x38>)
 800040a:	0004      	movs	r4, r0
 800040c:	000d      	movs	r5, r1
 800040e:	f000 ffd7 	bl	80013c0 <__aeabi_dcmpge>
 8000412:	2800      	cmp	r0, #0
 8000414:	d104      	bne.n	8000420 <__aeabi_d2uiz+0x1c>
 8000416:	0020      	movs	r0, r4
 8000418:	0029      	movs	r1, r5
 800041a:	f000 ff33 	bl	8001284 <__aeabi_d2iz>
 800041e:	bd70      	pop	{r4, r5, r6, pc}
 8000420:	4b06      	ldr	r3, [pc, #24]	@ (800043c <__aeabi_d2uiz+0x38>)
 8000422:	2200      	movs	r2, #0
 8000424:	0020      	movs	r0, r4
 8000426:	0029      	movs	r1, r5
 8000428:	f000 fb22 	bl	8000a70 <__aeabi_dsub>
 800042c:	f000 ff2a 	bl	8001284 <__aeabi_d2iz>
 8000430:	2380      	movs	r3, #128	@ 0x80
 8000432:	061b      	lsls	r3, r3, #24
 8000434:	469c      	mov	ip, r3
 8000436:	4460      	add	r0, ip
 8000438:	e7f1      	b.n	800041e <__aeabi_d2uiz+0x1a>
 800043a:	46c0      	nop			@ (mov r8, r8)
 800043c:	41e00000 	.word	0x41e00000

08000440 <__aeabi_ddiv>:
 8000440:	b5f0      	push	{r4, r5, r6, r7, lr}
 8000442:	46de      	mov	lr, fp
 8000444:	4645      	mov	r5, r8
 8000446:	4657      	mov	r7, sl
 8000448:	464e      	mov	r6, r9
 800044a:	b5e0      	push	{r5, r6, r7, lr}
 800044c:	b087      	sub	sp, #28
 800044e:	9200      	str	r2, [sp, #0]
 8000450:	9301      	str	r3, [sp, #4]
 8000452:	030b      	lsls	r3, r1, #12
 8000454:	0b1b      	lsrs	r3, r3, #12
 8000456:	469b      	mov	fp, r3
 8000458:	0fca      	lsrs	r2, r1, #31
 800045a:	004b      	lsls	r3, r1, #1
 800045c:	0004      	movs	r4, r0
 800045e:	4680      	mov	r8, r0
 8000460:	0d5b      	lsrs	r3, r3, #21
 8000462:	9202      	str	r2, [sp, #8]
 8000464:	d100      	bne.n	8000468 <__aeabi_ddiv+0x28>
 8000466:	e098      	b.n	800059a <__aeabi_ddiv+0x15a>
 8000468:	4a7c      	ldr	r2, [pc, #496]	@ (800065c <__aeabi_ddiv+0x21c>)
 800046a:	4293      	cmp	r3, r2
 800046c:	d037      	beq.n	80004de <__aeabi_ddiv+0x9e>
 800046e:	4659      	mov	r1, fp
 8000470:	0f42      	lsrs	r2, r0, #29
 8000472:	00c9      	lsls	r1, r1, #3
 8000474:	430a      	orrs	r2, r1
 8000476:	2180      	movs	r1, #128	@ 0x80
 8000478:	0409      	lsls	r1, r1, #16
 800047a:	4311      	orrs	r1, r2
 800047c:	00c2      	lsls	r2, r0, #3
 800047e:	4690      	mov	r8, r2
 8000480:	4a77      	ldr	r2, [pc, #476]	@ (8000660 <__aeabi_ddiv+0x220>)
 8000482:	4689      	mov	r9, r1
 8000484:	4692      	mov	sl, r2
 8000486:	449a      	add	sl, r3
 8000488:	2300      	movs	r3, #0
 800048a:	2400      	movs	r4, #0
 800048c:	9303      	str	r3, [sp, #12]
 800048e:	9e00      	ldr	r6, [sp, #0]
 8000490:	9f01      	ldr	r7, [sp, #4]
 8000492:	033b      	lsls	r3, r7, #12
 8000494:	0b1b      	lsrs	r3, r3, #12
 8000496:	469b      	mov	fp, r3
 8000498:	007b      	lsls	r3, r7, #1
 800049a:	0030      	movs	r0, r6
 800049c:	0d5b      	lsrs	r3, r3, #21
 800049e:	0ffd      	lsrs	r5, r7, #31
 80004a0:	2b00      	cmp	r3, #0
 80004a2:	d059      	beq.n	8000558 <__aeabi_ddiv+0x118>
 80004a4:	4a6d      	ldr	r2, [pc, #436]	@ (800065c <__aeabi_ddiv+0x21c>)
 80004a6:	4293      	cmp	r3, r2
 80004a8:	d048      	beq.n	800053c <__aeabi_ddiv+0xfc>
 80004aa:	4659      	mov	r1, fp
 80004ac:	0f72      	lsrs	r2, r6, #29
 80004ae:	00c9      	lsls	r1, r1, #3
 80004b0:	430a      	orrs	r2, r1
 80004b2:	2180      	movs	r1, #128	@ 0x80
 80004b4:	0409      	lsls	r1, r1, #16
 80004b6:	4311      	orrs	r1, r2
 80004b8:	468b      	mov	fp, r1
 80004ba:	4969      	ldr	r1, [pc, #420]	@ (8000660 <__aeabi_ddiv+0x220>)
 80004bc:	00f2      	lsls	r2, r6, #3
 80004be:	468c      	mov	ip, r1
 80004c0:	4651      	mov	r1, sl
 80004c2:	4463      	add	r3, ip
 80004c4:	1acb      	subs	r3, r1, r3
 80004c6:	469a      	mov	sl, r3
 80004c8:	2100      	movs	r1, #0
 80004ca:	9e02      	ldr	r6, [sp, #8]
 80004cc:	406e      	eors	r6, r5
 80004ce:	b2f6      	uxtb	r6, r6
 80004d0:	2c0f      	cmp	r4, #15
 80004d2:	d900      	bls.n	80004d6 <__aeabi_ddiv+0x96>
 80004d4:	e0ce      	b.n	8000674 <__aeabi_ddiv+0x234>
 80004d6:	4b63      	ldr	r3, [pc, #396]	@ (8000664 <__aeabi_ddiv+0x224>)
 80004d8:	00a4      	lsls	r4, r4, #2
 80004da:	591b      	ldr	r3, [r3, r4]
 80004dc:	469f      	mov	pc, r3
 80004de:	465a      	mov	r2, fp
 80004e0:	4302      	orrs	r2, r0
 80004e2:	4691      	mov	r9, r2
 80004e4:	d000      	beq.n	80004e8 <__aeabi_ddiv+0xa8>
 80004e6:	e090      	b.n	800060a <__aeabi_ddiv+0x1ca>
 80004e8:	469a      	mov	sl, r3
 80004ea:	2302      	movs	r3, #2
 80004ec:	4690      	mov	r8, r2
 80004ee:	2408      	movs	r4, #8
 80004f0:	9303      	str	r3, [sp, #12]
 80004f2:	e7cc      	b.n	800048e <__aeabi_ddiv+0x4e>
 80004f4:	46cb      	mov	fp, r9
 80004f6:	4642      	mov	r2, r8
 80004f8:	9d02      	ldr	r5, [sp, #8]
 80004fa:	9903      	ldr	r1, [sp, #12]
 80004fc:	2902      	cmp	r1, #2
 80004fe:	d100      	bne.n	8000502 <__aeabi_ddiv+0xc2>
 8000500:	e1de      	b.n	80008c0 <__aeabi_ddiv+0x480>
 8000502:	2903      	cmp	r1, #3
 8000504:	d100      	bne.n	8000508 <__aeabi_ddiv+0xc8>
 8000506:	e08d      	b.n	8000624 <__aeabi_ddiv+0x1e4>
 8000508:	2901      	cmp	r1, #1
 800050a:	d000      	beq.n	800050e <__aeabi_ddiv+0xce>
 800050c:	e179      	b.n	8000802 <__aeabi_ddiv+0x3c2>
 800050e:	002e      	movs	r6, r5
 8000510:	2200      	movs	r2, #0
 8000512:	2300      	movs	r3, #0
 8000514:	2400      	movs	r4, #0
 8000516:	4690      	mov	r8, r2
 8000518:	051b      	lsls	r3, r3, #20
 800051a:	4323      	orrs	r3, r4
 800051c:	07f6      	lsls	r6, r6, #31
 800051e:	4333      	orrs	r3, r6
 8000520:	4640      	mov	r0, r8
 8000522:	0019      	movs	r1, r3
 8000524:	b007      	add	sp, #28
 8000526:	bcf0      	pop	{r4, r5, r6, r7}
 8000528:	46bb      	mov	fp, r7
 800052a:	46b2      	mov	sl, r6
 800052c:	46a9      	mov	r9, r5
 800052e:	46a0      	mov	r8, r4
 8000530:	bdf0      	pop	{r4, r5, r6, r7, pc}
 8000532:	2200      	movs	r2, #0
 8000534:	2400      	movs	r4, #0
 8000536:	4690      	mov	r8, r2
 8000538:	4b48      	ldr	r3, [pc, #288]	@ (800065c <__aeabi_ddiv+0x21c>)
 800053a:	e7ed      	b.n	8000518 <__aeabi_ddiv+0xd8>
 800053c:	465a      	mov	r2, fp
 800053e:	9b00      	ldr	r3, [sp, #0]
 8000540:	431a      	orrs	r2, r3
 8000542:	4b49      	ldr	r3, [pc, #292]	@ (8000668 <__aeabi_ddiv+0x228>)
 8000544:	469c      	mov	ip, r3
 8000546:	44e2      	add	sl, ip
 8000548:	2a00      	cmp	r2, #0
 800054a:	d159      	bne.n	8000600 <__aeabi_ddiv+0x1c0>
 800054c:	2302      	movs	r3, #2
 800054e:	431c      	orrs	r4, r3
 8000550:	2300      	movs	r3, #0
 8000552:	2102      	movs	r1, #2
 8000554:	469b      	mov	fp, r3
 8000556:	e7b8      	b.n	80004ca <__aeabi_ddiv+0x8a>
 8000558:	465a      	mov	r2, fp
 800055a:	9b00      	ldr	r3, [sp, #0]
 800055c:	431a      	orrs	r2, r3
 800055e:	d049      	beq.n	80005f4 <__aeabi_ddiv+0x1b4>
 8000560:	465b      	mov	r3, fp
 8000562:	2b00      	cmp	r3, #0
 8000564:	d100      	bne.n	8000568 <__aeabi_ddiv+0x128>
 8000566:	e19c      	b.n	80008a2 <__aeabi_ddiv+0x462>
 8000568:	4658      	mov	r0, fp
 800056a:	f000 ff33 	bl	80013d4 <__clzsi2>
 800056e:	0002      	movs	r2, r0
 8000570:	0003      	movs	r3, r0
 8000572:	3a0b      	subs	r2, #11
 8000574:	271d      	movs	r7, #29
 8000576:	9e00      	ldr	r6, [sp, #0]
 8000578:	1aba      	subs	r2, r7, r2
 800057a:	0019      	movs	r1, r3
 800057c:	4658      	mov	r0, fp
 800057e:	40d6      	lsrs	r6, r2
 8000580:	3908      	subs	r1, #8
 8000582:	4088      	lsls	r0, r1
 8000584:	0032      	movs	r2, r6
 8000586:	4302      	orrs	r2, r0
 8000588:	4693      	mov	fp, r2
 800058a:	9a00      	ldr	r2, [sp, #0]
 800058c:	408a      	lsls	r2, r1
 800058e:	4937      	ldr	r1, [pc, #220]	@ (800066c <__aeabi_ddiv+0x22c>)
 8000590:	4453      	add	r3, sl
 8000592:	468a      	mov	sl, r1
 8000594:	2100      	movs	r1, #0
 8000596:	449a      	add	sl, r3
 8000598:	e797      	b.n	80004ca <__aeabi_ddiv+0x8a>
 800059a:	465b      	mov	r3, fp
 800059c:	4303      	orrs	r3, r0
 800059e:	4699      	mov	r9, r3
 80005a0:	d021      	beq.n	80005e6 <__aeabi_ddiv+0x1a6>
 80005a2:	465b      	mov	r3, fp
 80005a4:	2b00      	cmp	r3, #0
 80005a6:	d100      	bne.n	80005aa <__aeabi_ddiv+0x16a>
 80005a8:	e169      	b.n	800087e <__aeabi_ddiv+0x43e>
 80005aa:	4658      	mov	r0, fp
 80005ac:	f000 ff12 	bl	80013d4 <__clzsi2>
 80005b0:	230b      	movs	r3, #11
 80005b2:	425b      	negs	r3, r3
 80005b4:	469c      	mov	ip, r3
 80005b6:	0002      	movs	r2, r0
 80005b8:	4484      	add	ip, r0
 80005ba:	4666      	mov	r6, ip
 80005bc:	231d      	movs	r3, #29
 80005be:	1b9b      	subs	r3, r3, r6
 80005c0:	0026      	movs	r6, r4
 80005c2:	0011      	movs	r1, r2
 80005c4:	4658      	mov	r0, fp
 80005c6:	40de      	lsrs	r6, r3
 80005c8:	3908      	subs	r1, #8
 80005ca:	4088      	lsls	r0, r1
 80005cc:	0033      	movs	r3, r6
 80005ce:	4303      	orrs	r3, r0
 80005d0:	4699      	mov	r9, r3
 80005d2:	0023      	movs	r3, r4
 80005d4:	408b      	lsls	r3, r1
 80005d6:	4698      	mov	r8, r3
 80005d8:	4b25      	ldr	r3, [pc, #148]	@ (8000670 <__aeabi_ddiv+0x230>)
 80005da:	2400      	movs	r4, #0
 80005dc:	1a9b      	subs	r3, r3, r2
 80005de:	469a      	mov	sl, r3
 80005e0:	2300      	movs	r3, #0
 80005e2:	9303      	str	r3, [sp, #12]
 80005e4:	e753      	b.n	800048e <__aeabi_ddiv+0x4e>
 80005e6:	2300      	movs	r3, #0
 80005e8:	4698      	mov	r8, r3
 80005ea:	469a      	mov	sl, r3
 80005ec:	3301      	adds	r3, #1
 80005ee:	2404      	movs	r4, #4
 80005f0:	9303      	str	r3, [sp, #12]
 80005f2:	e74c      	b.n	800048e <__aeabi_ddiv+0x4e>
 80005f4:	2301      	movs	r3, #1
 80005f6:	431c      	orrs	r4, r3
 80005f8:	2300      	movs	r3, #0
 80005fa:	2101      	movs	r1, #1
 80005fc:	469b      	mov	fp, r3
 80005fe:	e764      	b.n	80004ca <__aeabi_ddiv+0x8a>
 8000600:	2303      	movs	r3, #3
 8000602:	0032      	movs	r2, r6
 8000604:	2103      	movs	r1, #3
 8000606:	431c      	orrs	r4, r3
 8000608:	e75f      	b.n	80004ca <__aeabi_ddiv+0x8a>
 800060a:	469a      	mov	sl, r3
 800060c:	2303      	movs	r3, #3
 800060e:	46d9      	mov	r9, fp
 8000610:	240c      	movs	r4, #12
 8000612:	9303      	str	r3, [sp, #12]
 8000614:	e73b      	b.n	800048e <__aeabi_ddiv+0x4e>
 8000616:	2300      	movs	r3, #0
 8000618:	2480      	movs	r4, #128	@ 0x80
 800061a:	4698      	mov	r8, r3
 800061c:	2600      	movs	r6, #0
 800061e:	4b0f      	ldr	r3, [pc, #60]	@ (800065c <__aeabi_ddiv+0x21c>)
 8000620:	0324      	lsls	r4, r4, #12
 8000622:	e779      	b.n	8000518 <__aeabi_ddiv+0xd8>
 8000624:	2480      	movs	r4, #128	@ 0x80
 8000626:	465b      	mov	r3, fp
 8000628:	0324      	lsls	r4, r4, #12
 800062a:	431c      	orrs	r4, r3
 800062c:	0324      	lsls	r4, r4, #12
 800062e:	002e      	movs	r6, r5
 8000630:	4690      	mov	r8, r2
 8000632:	4b0a      	ldr	r3, [pc, #40]	@ (800065c <__aeabi_ddiv+0x21c>)
 8000634:	0b24      	lsrs	r4, r4, #12
 8000636:	e76f      	b.n	8000518 <__aeabi_ddiv+0xd8>
 8000638:	2480      	movs	r4, #128	@ 0x80
 800063a:	464b      	mov	r3, r9
 800063c:	0324      	lsls	r4, r4, #12
 800063e:	4223      	tst	r3, r4
 8000640:	d002      	beq.n	8000648 <__aeabi_ddiv+0x208>
 8000642:	465b      	mov	r3, fp
 8000644:	4223      	tst	r3, r4
 8000646:	d0f0      	beq.n	800062a <__aeabi_ddiv+0x1ea>
 8000648:	2480      	movs	r4, #128	@ 0x80
 800064a:	464b      	mov	r3, r9
 800064c:	0324      	lsls	r4, r4, #12
 800064e:	431c      	orrs	r4, r3
 8000650:	0324      	lsls	r4, r4, #12
 8000652:	9e02      	ldr	r6, [sp, #8]
 8000654:	4b01      	ldr	r3, [pc, #4]	@ (800065c <__aeabi_ddiv+0x21c>)
 8000656:	0b24      	lsrs	r4, r4, #12
 8000658:	e75e      	b.n	8000518 <__aeabi_ddiv+0xd8>
 800065a:	46c0      	nop			@ (mov r8, r8)
 800065c:	000007ff 	.word	0x000007ff
 8000660:	fffffc01 	.word	0xfffffc01
 8000664:	08002d3c 	.word	0x08002d3c
 8000668:	fffff801 	.word	0xfffff801
 800066c:	000003f3 	.word	0x000003f3
 8000670:	fffffc0d 	.word	0xfffffc0d
 8000674:	45cb      	cmp	fp, r9
 8000676:	d200      	bcs.n	800067a <__aeabi_ddiv+0x23a>
 8000678:	e0f8      	b.n	800086c <__aeabi_ddiv+0x42c>
 800067a:	d100      	bne.n	800067e <__aeabi_ddiv+0x23e>
 800067c:	e0f3      	b.n	8000866 <__aeabi_ddiv+0x426>
 800067e:	2301      	movs	r3, #1
 8000680:	425b      	negs	r3, r3
 8000682:	469c      	mov	ip, r3
 8000684:	4644      	mov	r4, r8
 8000686:	4648      	mov	r0, r9
 8000688:	2500      	movs	r5, #0
 800068a:	44e2      	add	sl, ip
 800068c:	465b      	mov	r3, fp
 800068e:	0e17      	lsrs	r7, r2, #24
 8000690:	021b      	lsls	r3, r3, #8
 8000692:	431f      	orrs	r7, r3
 8000694:	0c19      	lsrs	r1, r3, #16
 8000696:	043b      	lsls	r3, r7, #16
 8000698:	0212      	lsls	r2, r2, #8
 800069a:	9700      	str	r7, [sp, #0]
 800069c:	0c1f      	lsrs	r7, r3, #16
 800069e:	4691      	mov	r9, r2
 80006a0:	9102      	str	r1, [sp, #8]
 80006a2:	9703      	str	r7, [sp, #12]
 80006a4:	f7ff fdbe 	bl	8000224 <__aeabi_uidivmod>
 80006a8:	0002      	movs	r2, r0
 80006aa:	437a      	muls	r2, r7
 80006ac:	040b      	lsls	r3, r1, #16
 80006ae:	0c21      	lsrs	r1, r4, #16
 80006b0:	4680      	mov	r8, r0
 80006b2:	4319      	orrs	r1, r3
 80006b4:	428a      	cmp	r2, r1
 80006b6:	d909      	bls.n	80006cc <__aeabi_ddiv+0x28c>
 80006b8:	9f00      	ldr	r7, [sp, #0]
 80006ba:	2301      	movs	r3, #1
 80006bc:	46bc      	mov	ip, r7
 80006be:	425b      	negs	r3, r3
 80006c0:	4461      	add	r1, ip
 80006c2:	469c      	mov	ip, r3
 80006c4:	44e0      	add	r8, ip
 80006c6:	428f      	cmp	r7, r1
 80006c8:	d800      	bhi.n	80006cc <__aeabi_ddiv+0x28c>
 80006ca:	e15c      	b.n	8000986 <__aeabi_ddiv+0x546>
 80006cc:	1a88      	subs	r0, r1, r2
 80006ce:	9902      	ldr	r1, [sp, #8]
 80006d0:	f7ff fda8 	bl	8000224 <__aeabi_uidivmod>
 80006d4:	9a03      	ldr	r2, [sp, #12]
 80006d6:	0424      	lsls	r4, r4, #16
 80006d8:	4342      	muls	r2, r0
 80006da:	0409      	lsls	r1, r1, #16
 80006dc:	0c24      	lsrs	r4, r4, #16
 80006de:	0003      	movs	r3, r0
 80006e0:	430c      	orrs	r4, r1
 80006e2:	42a2      	cmp	r2, r4
 80006e4:	d906      	bls.n	80006f4 <__aeabi_ddiv+0x2b4>
 80006e6:	9900      	ldr	r1, [sp, #0]
 80006e8:	3b01      	subs	r3, #1
 80006ea:	468c      	mov	ip, r1
 80006ec:	4464      	add	r4, ip
 80006ee:	42a1      	cmp	r1, r4
 80006f0:	d800      	bhi.n	80006f4 <__aeabi_ddiv+0x2b4>
 80006f2:	e142      	b.n	800097a <__aeabi_ddiv+0x53a>
 80006f4:	1aa0      	subs	r0, r4, r2
 80006f6:	4642      	mov	r2, r8
 80006f8:	0412      	lsls	r2, r2, #16
 80006fa:	431a      	orrs	r2, r3
 80006fc:	4693      	mov	fp, r2
 80006fe:	464b      	mov	r3, r9
 8000700:	4659      	mov	r1, fp
 8000702:	0c1b      	lsrs	r3, r3, #16
 8000704:	001f      	movs	r7, r3
 8000706:	9304      	str	r3, [sp, #16]
 8000708:	040b      	lsls	r3, r1, #16
 800070a:	4649      	mov	r1, r9
 800070c:	0409      	lsls	r1, r1, #16
 800070e:	0c09      	lsrs	r1, r1, #16
 8000710:	000c      	movs	r4, r1
 8000712:	0c1b      	lsrs	r3, r3, #16
 8000714:	435c      	muls	r4, r3
 8000716:	0c12      	lsrs	r2, r2, #16
 8000718:	437b      	muls	r3, r7
 800071a:	4688      	mov	r8, r1
 800071c:	4351      	muls	r1, r2
 800071e:	437a      	muls	r2, r7
 8000720:	0c27      	lsrs	r7, r4, #16
 8000722:	46bc      	mov	ip, r7
 8000724:	185b      	adds	r3, r3, r1
 8000726:	4463      	add	r3, ip
 8000728:	4299      	cmp	r1, r3
 800072a:	d903      	bls.n	8000734 <__aeabi_ddiv+0x2f4>
 800072c:	2180      	movs	r1, #128	@ 0x80
 800072e:	0249      	lsls	r1, r1, #9
 8000730:	468c      	mov	ip, r1
 8000732:	4462      	add	r2, ip
 8000734:	0c19      	lsrs	r1, r3, #16
 8000736:	0424      	lsls	r4, r4, #16
 8000738:	041b      	lsls	r3, r3, #16
 800073a:	0c24      	lsrs	r4, r4, #16
 800073c:	188a      	adds	r2, r1, r2
 800073e:	191c      	adds	r4, r3, r4
 8000740:	4290      	cmp	r0, r2
 8000742:	d302      	bcc.n	800074a <__aeabi_ddiv+0x30a>
 8000744:	d116      	bne.n	8000774 <__aeabi_ddiv+0x334>
 8000746:	42a5      	cmp	r5, r4
 8000748:	d214      	bcs.n	8000774 <__aeabi_ddiv+0x334>
 800074a:	465b      	mov	r3, fp
 800074c:	9f00      	ldr	r7, [sp, #0]
 800074e:	3b01      	subs	r3, #1
 8000750:	444d      	add	r5, r9
 8000752:	9305      	str	r3, [sp, #20]
 8000754:	454d      	cmp	r5, r9
 8000756:	419b      	sbcs	r3, r3
 8000758:	46bc      	mov	ip, r7
 800075a:	425b      	negs	r3, r3
 800075c:	4463      	add	r3, ip
 800075e:	18c0      	adds	r0, r0, r3
 8000760:	4287      	cmp	r7, r0
 8000762:	d300      	bcc.n	8000766 <__aeabi_ddiv+0x326>
 8000764:	e102      	b.n	800096c <__aeabi_ddiv+0x52c>
 8000766:	4282      	cmp	r2, r0
 8000768:	d900      	bls.n	800076c <__aeabi_ddiv+0x32c>
 800076a:	e129      	b.n	80009c0 <__aeabi_ddiv+0x580>
 800076c:	d100      	bne.n	8000770 <__aeabi_ddiv+0x330>
 800076e:	e124      	b.n	80009ba <__aeabi_ddiv+0x57a>
 8000770:	9b05      	ldr	r3, [sp, #20]
 8000772:	469b      	mov	fp, r3
 8000774:	1b2c      	subs	r4, r5, r4
 8000776:	42a5      	cmp	r5, r4
 8000778:	41ad      	sbcs	r5, r5
 800077a:	9b00      	ldr	r3, [sp, #0]
 800077c:	1a80      	subs	r0, r0, r2
 800077e:	426d      	negs	r5, r5
 8000780:	1b40      	subs	r0, r0, r5
 8000782:	4283      	cmp	r3, r0
 8000784:	d100      	bne.n	8000788 <__aeabi_ddiv+0x348>
 8000786:	e10f      	b.n	80009a8 <__aeabi_ddiv+0x568>
 8000788:	9902      	ldr	r1, [sp, #8]
 800078a:	f7ff fd4b 	bl	8000224 <__aeabi_uidivmod>
 800078e:	9a03      	ldr	r2, [sp, #12]
 8000790:	040b      	lsls	r3, r1, #16
 8000792:	4342      	muls	r2, r0
 8000794:	0c21      	lsrs	r1, r4, #16
 8000796:	0005      	movs	r5, r0
 8000798:	4319      	orrs	r1, r3
 800079a:	428a      	cmp	r2, r1
 800079c:	d900      	bls.n	80007a0 <__aeabi_ddiv+0x360>
 800079e:	e0cb      	b.n	8000938 <__aeabi_ddiv+0x4f8>
 80007a0:	1a88      	subs	r0, r1, r2
 80007a2:	9902      	ldr	r1, [sp, #8]
 80007a4:	f7ff fd3e 	bl	8000224 <__aeabi_uidivmod>
 80007a8:	9a03      	ldr	r2, [sp, #12]
 80007aa:	0424      	lsls	r4, r4, #16
 80007ac:	4342      	muls	r2, r0
 80007ae:	0409      	lsls	r1, r1, #16
 80007b0:	0c24      	lsrs	r4, r4, #16
 80007b2:	0003      	movs	r3, r0
 80007b4:	430c      	orrs	r4, r1
 80007b6:	42a2      	cmp	r2, r4
 80007b8:	d900      	bls.n	80007bc <__aeabi_ddiv+0x37c>
 80007ba:	e0ca      	b.n	8000952 <__aeabi_ddiv+0x512>
 80007bc:	4641      	mov	r1, r8
 80007be:	1aa4      	subs	r4, r4, r2
 80007c0:	042a      	lsls	r2, r5, #16
 80007c2:	431a      	orrs	r2, r3
 80007c4:	9f04      	ldr	r7, [sp, #16]
 80007c6:	0413      	lsls	r3, r2, #16
 80007c8:	0c1b      	lsrs	r3, r3, #16
 80007ca:	4359      	muls	r1, r3
 80007cc:	4640      	mov	r0, r8
 80007ce:	437b      	muls	r3, r7
 80007d0:	469c      	mov	ip, r3
 80007d2:	0c15      	lsrs	r5, r2, #16
 80007d4:	4368      	muls	r0, r5
 80007d6:	0c0b      	lsrs	r3, r1, #16
 80007d8:	4484      	add	ip, r0
 80007da:	4463      	add	r3, ip
 80007dc:	437d      	muls	r5, r7
 80007de:	4298      	cmp	r0, r3
 80007e0:	d903      	bls.n	80007ea <__aeabi_ddiv+0x3aa>
 80007e2:	2080      	movs	r0, #128	@ 0x80
 80007e4:	0240      	lsls	r0, r0, #9
 80007e6:	4684      	mov	ip, r0
 80007e8:	4465      	add	r5, ip
 80007ea:	0c18      	lsrs	r0, r3, #16
 80007ec:	0409      	lsls	r1, r1, #16
 80007ee:	041b      	lsls	r3, r3, #16
 80007f0:	0c09      	lsrs	r1, r1, #16
 80007f2:	1940      	adds	r0, r0, r5
 80007f4:	185b      	adds	r3, r3, r1
 80007f6:	4284      	cmp	r4, r0
 80007f8:	d327      	bcc.n	800084a <__aeabi_ddiv+0x40a>
 80007fa:	d023      	beq.n	8000844 <__aeabi_ddiv+0x404>
 80007fc:	2301      	movs	r3, #1
 80007fe:	0035      	movs	r5, r6
 8000800:	431a      	orrs	r2, r3
 8000802:	4b94      	ldr	r3, [pc, #592]	@ (8000a54 <__aeabi_ddiv+0x614>)
 8000804:	4453      	add	r3, sl
 8000806:	2b00      	cmp	r3, #0
 8000808:	dd60      	ble.n	80008cc <__aeabi_ddiv+0x48c>
 800080a:	0751      	lsls	r1, r2, #29
 800080c:	d000      	beq.n	8000810 <__aeabi_ddiv+0x3d0>
 800080e:	e086      	b.n	800091e <__aeabi_ddiv+0x4de>
 8000810:	002e      	movs	r6, r5
 8000812:	08d1      	lsrs	r1, r2, #3
 8000814:	465a      	mov	r2, fp
 8000816:	01d2      	lsls	r2, r2, #7
 8000818:	d506      	bpl.n	8000828 <__aeabi_ddiv+0x3e8>
 800081a:	465a      	mov	r2, fp
 800081c:	4b8e      	ldr	r3, [pc, #568]	@ (8000a58 <__aeabi_ddiv+0x618>)
 800081e:	401a      	ands	r2, r3
 8000820:	2380      	movs	r3, #128	@ 0x80
 8000822:	4693      	mov	fp, r2
 8000824:	00db      	lsls	r3, r3, #3
 8000826:	4453      	add	r3, sl
 8000828:	4a8c      	ldr	r2, [pc, #560]	@ (8000a5c <__aeabi_ddiv+0x61c>)
 800082a:	4293      	cmp	r3, r2
 800082c:	dd00      	ble.n	8000830 <__aeabi_ddiv+0x3f0>
 800082e:	e680      	b.n	8000532 <__aeabi_ddiv+0xf2>
 8000830:	465a      	mov	r2, fp
 8000832:	0752      	lsls	r2, r2, #29
 8000834:	430a      	orrs	r2, r1
 8000836:	4690      	mov	r8, r2
 8000838:	465a      	mov	r2, fp
 800083a:	055b      	lsls	r3, r3, #21
 800083c:	0254      	lsls	r4, r2, #9
 800083e:	0b24      	lsrs	r4, r4, #12
 8000840:	0d5b      	lsrs	r3, r3, #21
 8000842:	e669      	b.n	8000518 <__aeabi_ddiv+0xd8>
 8000844:	0035      	movs	r5, r6
 8000846:	2b00      	cmp	r3, #0
 8000848:	d0db      	beq.n	8000802 <__aeabi_ddiv+0x3c2>
 800084a:	9d00      	ldr	r5, [sp, #0]
 800084c:	1e51      	subs	r1, r2, #1
 800084e:	46ac      	mov	ip, r5
 8000850:	4464      	add	r4, ip
 8000852:	42ac      	cmp	r4, r5
 8000854:	d200      	bcs.n	8000858 <__aeabi_ddiv+0x418>
 8000856:	e09e      	b.n	8000996 <__aeabi_ddiv+0x556>
 8000858:	4284      	cmp	r4, r0
 800085a:	d200      	bcs.n	800085e <__aeabi_ddiv+0x41e>
 800085c:	e0e1      	b.n	8000a22 <__aeabi_ddiv+0x5e2>
 800085e:	d100      	bne.n	8000862 <__aeabi_ddiv+0x422>
 8000860:	e0ee      	b.n	8000a40 <__aeabi_ddiv+0x600>
 8000862:	000a      	movs	r2, r1
 8000864:	e7ca      	b.n	80007fc <__aeabi_ddiv+0x3bc>
 8000866:	4542      	cmp	r2, r8
 8000868:	d900      	bls.n	800086c <__aeabi_ddiv+0x42c>
 800086a:	e708      	b.n	800067e <__aeabi_ddiv+0x23e>
 800086c:	464b      	mov	r3, r9
 800086e:	07dc      	lsls	r4, r3, #31
 8000870:	0858      	lsrs	r0, r3, #1
 8000872:	4643      	mov	r3, r8
 8000874:	085b      	lsrs	r3, r3, #1
 8000876:	431c      	orrs	r4, r3
 8000878:	4643      	mov	r3, r8
 800087a:	07dd      	lsls	r5, r3, #31
 800087c:	e706      	b.n	800068c <__aeabi_ddiv+0x24c>
 800087e:	f000 fda9 	bl	80013d4 <__clzsi2>
 8000882:	2315      	movs	r3, #21
 8000884:	469c      	mov	ip, r3
 8000886:	4484      	add	ip, r0
 8000888:	0002      	movs	r2, r0
 800088a:	4663      	mov	r3, ip
 800088c:	3220      	adds	r2, #32
 800088e:	2b1c      	cmp	r3, #28
 8000890:	dc00      	bgt.n	8000894 <__aeabi_ddiv+0x454>
 8000892:	e692      	b.n	80005ba <__aeabi_ddiv+0x17a>
 8000894:	0023      	movs	r3, r4
 8000896:	3808      	subs	r0, #8
 8000898:	4083      	lsls	r3, r0
 800089a:	4699      	mov	r9, r3
 800089c:	2300      	movs	r3, #0
 800089e:	4698      	mov	r8, r3
 80008a0:	e69a      	b.n	80005d8 <__aeabi_ddiv+0x198>
 80008a2:	f000 fd97 	bl	80013d4 <__clzsi2>
 80008a6:	0002      	movs	r2, r0
 80008a8:	0003      	movs	r3, r0
 80008aa:	3215      	adds	r2, #21
 80008ac:	3320      	adds	r3, #32
 80008ae:	2a1c      	cmp	r2, #28
 80008b0:	dc00      	bgt.n	80008b4 <__aeabi_ddiv+0x474>
 80008b2:	e65f      	b.n	8000574 <__aeabi_ddiv+0x134>
 80008b4:	9900      	ldr	r1, [sp, #0]
 80008b6:	3808      	subs	r0, #8
 80008b8:	4081      	lsls	r1, r0
 80008ba:	2200      	movs	r2, #0
 80008bc:	468b      	mov	fp, r1
 80008be:	e666      	b.n	800058e <__aeabi_ddiv+0x14e>
 80008c0:	2200      	movs	r2, #0
 80008c2:	002e      	movs	r6, r5
 80008c4:	2400      	movs	r4, #0
 80008c6:	4690      	mov	r8, r2
 80008c8:	4b65      	ldr	r3, [pc, #404]	@ (8000a60 <__aeabi_ddiv+0x620>)
 80008ca:	e625      	b.n	8000518 <__aeabi_ddiv+0xd8>
 80008cc:	002e      	movs	r6, r5
 80008ce:	2101      	movs	r1, #1
 80008d0:	1ac9      	subs	r1, r1, r3
 80008d2:	2938      	cmp	r1, #56	@ 0x38
 80008d4:	dd00      	ble.n	80008d8 <__aeabi_ddiv+0x498>
 80008d6:	e61b      	b.n	8000510 <__aeabi_ddiv+0xd0>
 80008d8:	291f      	cmp	r1, #31
 80008da:	dc7e      	bgt.n	80009da <__aeabi_ddiv+0x59a>
 80008dc:	4861      	ldr	r0, [pc, #388]	@ (8000a64 <__aeabi_ddiv+0x624>)
 80008de:	0014      	movs	r4, r2
 80008e0:	4450      	add	r0, sl
 80008e2:	465b      	mov	r3, fp
 80008e4:	4082      	lsls	r2, r0
 80008e6:	4083      	lsls	r3, r0
 80008e8:	40cc      	lsrs	r4, r1
 80008ea:	1e50      	subs	r0, r2, #1
 80008ec:	4182      	sbcs	r2, r0
 80008ee:	4323      	orrs	r3, r4
 80008f0:	431a      	orrs	r2, r3
 80008f2:	465b      	mov	r3, fp
 80008f4:	40cb      	lsrs	r3, r1
 80008f6:	0751      	lsls	r1, r2, #29
 80008f8:	d009      	beq.n	800090e <__aeabi_ddiv+0x4ce>
 80008fa:	210f      	movs	r1, #15
 80008fc:	4011      	ands	r1, r2
 80008fe:	2904      	cmp	r1, #4
 8000900:	d005      	beq.n	800090e <__aeabi_ddiv+0x4ce>
 8000902:	1d11      	adds	r1, r2, #4
 8000904:	4291      	cmp	r1, r2
 8000906:	4192      	sbcs	r2, r2
 8000908:	4252      	negs	r2, r2
 800090a:	189b      	adds	r3, r3, r2
 800090c:	000a      	movs	r2, r1
 800090e:	0219      	lsls	r1, r3, #8
 8000910:	d400      	bmi.n	8000914 <__aeabi_ddiv+0x4d4>
 8000912:	e09b      	b.n	8000a4c <__aeabi_ddiv+0x60c>
 8000914:	2200      	movs	r2, #0
 8000916:	2301      	movs	r3, #1
 8000918:	2400      	movs	r4, #0
 800091a:	4690      	mov	r8, r2
 800091c:	e5fc      	b.n	8000518 <__aeabi_ddiv+0xd8>
 800091e:	210f      	movs	r1, #15
 8000920:	4011      	ands	r1, r2
 8000922:	2904      	cmp	r1, #4
 8000924:	d100      	bne.n	8000928 <__aeabi_ddiv+0x4e8>
 8000926:	e773      	b.n	8000810 <__aeabi_ddiv+0x3d0>
 8000928:	1d11      	adds	r1, r2, #4
 800092a:	4291      	cmp	r1, r2
 800092c:	4192      	sbcs	r2, r2
 800092e:	4252      	negs	r2, r2
 8000930:	002e      	movs	r6, r5
 8000932:	08c9      	lsrs	r1, r1, #3
 8000934:	4493      	add	fp, r2
 8000936:	e76d      	b.n	8000814 <__aeabi_ddiv+0x3d4>
 8000938:	9b00      	ldr	r3, [sp, #0]
 800093a:	3d01      	subs	r5, #1
 800093c:	469c      	mov	ip, r3
 800093e:	4461      	add	r1, ip
 8000940:	428b      	cmp	r3, r1
 8000942:	d900      	bls.n	8000946 <__aeabi_ddiv+0x506>
 8000944:	e72c      	b.n	80007a0 <__aeabi_ddiv+0x360>
 8000946:	428a      	cmp	r2, r1
 8000948:	d800      	bhi.n	800094c <__aeabi_ddiv+0x50c>
 800094a:	e729      	b.n	80007a0 <__aeabi_ddiv+0x360>
 800094c:	1e85      	subs	r5, r0, #2
 800094e:	4461      	add	r1, ip
 8000950:	e726      	b.n	80007a0 <__aeabi_ddiv+0x360>
 8000952:	9900      	ldr	r1, [sp, #0]
 8000954:	3b01      	subs	r3, #1
 8000956:	468c      	mov	ip, r1
 8000958:	4464      	add	r4, ip
 800095a:	42a1      	cmp	r1, r4
 800095c:	d900      	bls.n	8000960 <__aeabi_ddiv+0x520>
 800095e:	e72d      	b.n	80007bc <__aeabi_ddiv+0x37c>
 8000960:	42a2      	cmp	r2, r4
 8000962:	d800      	bhi.n	8000966 <__aeabi_ddiv+0x526>
 8000964:	e72a      	b.n	80007bc <__aeabi_ddiv+0x37c>
 8000966:	1e83      	subs	r3, r0, #2
 8000968:	4464      	add	r4, ip
 800096a:	e727      	b.n	80007bc <__aeabi_ddiv+0x37c>
 800096c:	4287      	cmp	r7, r0
 800096e:	d000      	beq.n	8000972 <__aeabi_ddiv+0x532>
 8000970:	e6fe      	b.n	8000770 <__aeabi_ddiv+0x330>
 8000972:	45a9      	cmp	r9, r5
 8000974:	d900      	bls.n	8000978 <__aeabi_ddiv+0x538>
 8000976:	e6fb      	b.n	8000770 <__aeabi_ddiv+0x330>
 8000978:	e6f5      	b.n	8000766 <__aeabi_ddiv+0x326>
 800097a:	42a2      	cmp	r2, r4
 800097c:	d800      	bhi.n	8000980 <__aeabi_ddiv+0x540>
 800097e:	e6b9      	b.n	80006f4 <__aeabi_ddiv+0x2b4>
 8000980:	1e83      	subs	r3, r0, #2
 8000982:	4464      	add	r4, ip
 8000984:	e6b6      	b.n	80006f4 <__aeabi_ddiv+0x2b4>
 8000986:	428a      	cmp	r2, r1
 8000988:	d800      	bhi.n	800098c <__aeabi_ddiv+0x54c>
 800098a:	e69f      	b.n	80006cc <__aeabi_ddiv+0x28c>
 800098c:	46bc      	mov	ip, r7
 800098e:	1e83      	subs	r3, r0, #2
 8000990:	4698      	mov	r8, r3
 8000992:	4461      	add	r1, ip
 8000994:	e69a      	b.n	80006cc <__aeabi_ddiv+0x28c>
 8000996:	000a      	movs	r2, r1
 8000998:	4284      	cmp	r4, r0
 800099a:	d000      	beq.n	800099e <__aeabi_ddiv+0x55e>
 800099c:	e72e      	b.n	80007fc <__aeabi_ddiv+0x3bc>
 800099e:	454b      	cmp	r3, r9
 80009a0:	d000      	beq.n	80009a4 <__aeabi_ddiv+0x564>
 80009a2:	e72b      	b.n	80007fc <__aeabi_ddiv+0x3bc>
 80009a4:	0035      	movs	r5, r6
 80009a6:	e72c      	b.n	8000802 <__aeabi_ddiv+0x3c2>
 80009a8:	4b2a      	ldr	r3, [pc, #168]	@ (8000a54 <__aeabi_ddiv+0x614>)
 80009aa:	4a2f      	ldr	r2, [pc, #188]	@ (8000a68 <__aeabi_ddiv+0x628>)
 80009ac:	4453      	add	r3, sl
 80009ae:	4592      	cmp	sl, r2
 80009b0:	db43      	blt.n	8000a3a <__aeabi_ddiv+0x5fa>
 80009b2:	2201      	movs	r2, #1
 80009b4:	2100      	movs	r1, #0
 80009b6:	4493      	add	fp, r2
 80009b8:	e72c      	b.n	8000814 <__aeabi_ddiv+0x3d4>
 80009ba:	42ac      	cmp	r4, r5
 80009bc:	d800      	bhi.n	80009c0 <__aeabi_ddiv+0x580>
 80009be:	e6d7      	b.n	8000770 <__aeabi_ddiv+0x330>
 80009c0:	2302      	movs	r3, #2
 80009c2:	425b      	negs	r3, r3
 80009c4:	469c      	mov	ip, r3
 80009c6:	9900      	ldr	r1, [sp, #0]
 80009c8:	444d      	add	r5, r9
 80009ca:	454d      	cmp	r5, r9
 80009cc:	419b      	sbcs	r3, r3
 80009ce:	44e3      	add	fp, ip
 80009d0:	468c      	mov	ip, r1
 80009d2:	425b      	negs	r3, r3
 80009d4:	4463      	add	r3, ip
 80009d6:	18c0      	adds	r0, r0, r3
 80009d8:	e6cc      	b.n	8000774 <__aeabi_ddiv+0x334>
 80009da:	201f      	movs	r0, #31
 80009dc:	4240      	negs	r0, r0
 80009de:	1ac3      	subs	r3, r0, r3
 80009e0:	4658      	mov	r0, fp
 80009e2:	40d8      	lsrs	r0, r3
 80009e4:	2920      	cmp	r1, #32
 80009e6:	d004      	beq.n	80009f2 <__aeabi_ddiv+0x5b2>
 80009e8:	4659      	mov	r1, fp
 80009ea:	4b20      	ldr	r3, [pc, #128]	@ (8000a6c <__aeabi_ddiv+0x62c>)
 80009ec:	4453      	add	r3, sl
 80009ee:	4099      	lsls	r1, r3
 80009f0:	430a      	orrs	r2, r1
 80009f2:	1e53      	subs	r3, r2, #1
 80009f4:	419a      	sbcs	r2, r3
 80009f6:	2307      	movs	r3, #7
 80009f8:	0019      	movs	r1, r3
 80009fa:	4302      	orrs	r2, r0
 80009fc:	2400      	movs	r4, #0
 80009fe:	4011      	ands	r1, r2
 8000a00:	4213      	tst	r3, r2
 8000a02:	d009      	beq.n	8000a18 <__aeabi_ddiv+0x5d8>
 8000a04:	3308      	adds	r3, #8
 8000a06:	4013      	ands	r3, r2
 8000a08:	2b04      	cmp	r3, #4
 8000a0a:	d01d      	beq.n	8000a48 <__aeabi_ddiv+0x608>
 8000a0c:	1d13      	adds	r3, r2, #4
 8000a0e:	4293      	cmp	r3, r2
 8000a10:	4189      	sbcs	r1, r1
 8000a12:	001a      	movs	r2, r3
 8000a14:	4249      	negs	r1, r1
 8000a16:	0749      	lsls	r1, r1, #29
 8000a18:	08d2      	lsrs	r2, r2, #3
 8000a1a:	430a      	orrs	r2, r1
 8000a1c:	4690      	mov	r8, r2
 8000a1e:	2300      	movs	r3, #0
 8000a20:	e57a      	b.n	8000518 <__aeabi_ddiv+0xd8>
 8000a22:	4649      	mov	r1, r9
 8000a24:	9f00      	ldr	r7, [sp, #0]
 8000a26:	004d      	lsls	r5, r1, #1
 8000a28:	454d      	cmp	r5, r9
 8000a2a:	4189      	sbcs	r1, r1
 8000a2c:	46bc      	mov	ip, r7
 8000a2e:	4249      	negs	r1, r1
 8000a30:	4461      	add	r1, ip
 8000a32:	46a9      	mov	r9, r5
 8000a34:	3a02      	subs	r2, #2
 8000a36:	1864      	adds	r4, r4, r1
 8000a38:	e7ae      	b.n	8000998 <__aeabi_ddiv+0x558>
 8000a3a:	2201      	movs	r2, #1
 8000a3c:	4252      	negs	r2, r2
 8000a3e:	e746      	b.n	80008ce <__aeabi_ddiv+0x48e>
 8000a40:	4599      	cmp	r9, r3
 8000a42:	d3ee      	bcc.n	8000a22 <__aeabi_ddiv+0x5e2>
 8000a44:	000a      	movs	r2, r1
 8000a46:	e7aa      	b.n	800099e <__aeabi_ddiv+0x55e>
 8000a48:	2100      	movs	r1, #0
 8000a4a:	e7e5      	b.n	8000a18 <__aeabi_ddiv+0x5d8>
 8000a4c:	0759      	lsls	r1, r3, #29
 8000a4e:	025b      	lsls	r3, r3, #9
 8000a50:	0b1c      	lsrs	r4, r3, #12
 8000a52:	e7e1      	b.n	8000a18 <__aeabi_ddiv+0x5d8>
 8000a54:	000003ff 	.word	0x000003ff
 8000a58:	feffffff 	.word	0xfeffffff
 8000a5c:	000007fe 	.word	0x000007fe
 8000a60:	000007ff 	.word	0x000007ff
 8000a64:	0000041e 	.word	0x0000041e
 8000a68:	fffffc02 	.word	0xfffffc02
 8000a6c:	0000043e 	.word	0x0000043e

08000a70 <__aeabi_dsub>:
 8000a70:	b5f0      	push	{r4, r5, r6, r7, lr}
 8000a72:	4657      	mov	r7, sl
 8000a74:	464e      	mov	r6, r9
 8000a76:	4645      	mov	r5, r8
 8000a78:	46de      	mov	lr, fp
 8000a7a:	b5e0      	push	{r5, r6, r7, lr}
 8000a7c:	b083      	sub	sp, #12
 8000a7e:	9000      	str	r0, [sp, #0]
 8000a80:	9101      	str	r1, [sp, #4]
 8000a82:	030c      	lsls	r4, r1, #12
 8000a84:	004d      	lsls	r5, r1, #1
 8000a86:	0fce      	lsrs	r6, r1, #31
 8000a88:	0a61      	lsrs	r1, r4, #9
 8000a8a:	9c00      	ldr	r4, [sp, #0]
 8000a8c:	005f      	lsls	r7, r3, #1
 8000a8e:	0f64      	lsrs	r4, r4, #29
 8000a90:	430c      	orrs	r4, r1
 8000a92:	9900      	ldr	r1, [sp, #0]
 8000a94:	9200      	str	r2, [sp, #0]
 8000a96:	9301      	str	r3, [sp, #4]
 8000a98:	00c8      	lsls	r0, r1, #3
 8000a9a:	0319      	lsls	r1, r3, #12
 8000a9c:	0d7b      	lsrs	r3, r7, #21
 8000a9e:	4699      	mov	r9, r3
 8000aa0:	9b01      	ldr	r3, [sp, #4]
 8000aa2:	4fcc      	ldr	r7, [pc, #816]	@ (8000dd4 <__aeabi_dsub+0x364>)
 8000aa4:	0fdb      	lsrs	r3, r3, #31
 8000aa6:	469c      	mov	ip, r3
 8000aa8:	0a4b      	lsrs	r3, r1, #9
 8000aaa:	9900      	ldr	r1, [sp, #0]
 8000aac:	4680      	mov	r8, r0
 8000aae:	0f49      	lsrs	r1, r1, #29
 8000ab0:	4319      	orrs	r1, r3
 8000ab2:	9b00      	ldr	r3, [sp, #0]
 8000ab4:	468b      	mov	fp, r1
 8000ab6:	00da      	lsls	r2, r3, #3
 8000ab8:	4692      	mov	sl, r2
 8000aba:	0d6d      	lsrs	r5, r5, #21
 8000abc:	45b9      	cmp	r9, r7
 8000abe:	d100      	bne.n	8000ac2 <__aeabi_dsub+0x52>
 8000ac0:	e0bf      	b.n	8000c42 <__aeabi_dsub+0x1d2>
 8000ac2:	2301      	movs	r3, #1
 8000ac4:	4661      	mov	r1, ip
 8000ac6:	4059      	eors	r1, r3
 8000ac8:	464b      	mov	r3, r9
 8000aca:	468c      	mov	ip, r1
 8000acc:	1aeb      	subs	r3, r5, r3
 8000ace:	428e      	cmp	r6, r1
 8000ad0:	d075      	beq.n	8000bbe <__aeabi_dsub+0x14e>
 8000ad2:	2b00      	cmp	r3, #0
 8000ad4:	dc00      	bgt.n	8000ad8 <__aeabi_dsub+0x68>
 8000ad6:	e2a3      	b.n	8001020 <__aeabi_dsub+0x5b0>
 8000ad8:	4649      	mov	r1, r9
 8000ada:	2900      	cmp	r1, #0
 8000adc:	d100      	bne.n	8000ae0 <__aeabi_dsub+0x70>
 8000ade:	e0ce      	b.n	8000c7e <__aeabi_dsub+0x20e>
 8000ae0:	42bd      	cmp	r5, r7
 8000ae2:	d100      	bne.n	8000ae6 <__aeabi_dsub+0x76>
 8000ae4:	e200      	b.n	8000ee8 <__aeabi_dsub+0x478>
 8000ae6:	2701      	movs	r7, #1
 8000ae8:	2b38      	cmp	r3, #56	@ 0x38
 8000aea:	dc19      	bgt.n	8000b20 <__aeabi_dsub+0xb0>
 8000aec:	2780      	movs	r7, #128	@ 0x80
 8000aee:	4659      	mov	r1, fp
 8000af0:	043f      	lsls	r7, r7, #16
 8000af2:	4339      	orrs	r1, r7
 8000af4:	468b      	mov	fp, r1
 8000af6:	2b1f      	cmp	r3, #31
 8000af8:	dd00      	ble.n	8000afc <__aeabi_dsub+0x8c>
 8000afa:	e1fa      	b.n	8000ef2 <__aeabi_dsub+0x482>
 8000afc:	2720      	movs	r7, #32
 8000afe:	1af9      	subs	r1, r7, r3
 8000b00:	468c      	mov	ip, r1
 8000b02:	4659      	mov	r1, fp
 8000b04:	4667      	mov	r7, ip
 8000b06:	40b9      	lsls	r1, r7
 8000b08:	000f      	movs	r7, r1
 8000b0a:	0011      	movs	r1, r2
 8000b0c:	40d9      	lsrs	r1, r3
 8000b0e:	430f      	orrs	r7, r1
 8000b10:	4661      	mov	r1, ip
 8000b12:	408a      	lsls	r2, r1
 8000b14:	1e51      	subs	r1, r2, #1
 8000b16:	418a      	sbcs	r2, r1
 8000b18:	4659      	mov	r1, fp
 8000b1a:	40d9      	lsrs	r1, r3
 8000b1c:	4317      	orrs	r7, r2
 8000b1e:	1a64      	subs	r4, r4, r1
 8000b20:	1bc7      	subs	r7, r0, r7
 8000b22:	42b8      	cmp	r0, r7
 8000b24:	4180      	sbcs	r0, r0
 8000b26:	4240      	negs	r0, r0
 8000b28:	1a24      	subs	r4, r4, r0
 8000b2a:	0223      	lsls	r3, r4, #8
 8000b2c:	d400      	bmi.n	8000b30 <__aeabi_dsub+0xc0>
 8000b2e:	e140      	b.n	8000db2 <__aeabi_dsub+0x342>
 8000b30:	0264      	lsls	r4, r4, #9
 8000b32:	0a64      	lsrs	r4, r4, #9
 8000b34:	2c00      	cmp	r4, #0
 8000b36:	d100      	bne.n	8000b3a <__aeabi_dsub+0xca>
 8000b38:	e154      	b.n	8000de4 <__aeabi_dsub+0x374>
 8000b3a:	0020      	movs	r0, r4
 8000b3c:	f000 fc4a 	bl	80013d4 <__clzsi2>
 8000b40:	0003      	movs	r3, r0
 8000b42:	3b08      	subs	r3, #8
 8000b44:	2120      	movs	r1, #32
 8000b46:	0038      	movs	r0, r7
 8000b48:	1aca      	subs	r2, r1, r3
 8000b4a:	40d0      	lsrs	r0, r2
 8000b4c:	409c      	lsls	r4, r3
 8000b4e:	0002      	movs	r2, r0
 8000b50:	409f      	lsls	r7, r3
 8000b52:	4322      	orrs	r2, r4
 8000b54:	429d      	cmp	r5, r3
 8000b56:	dd00      	ble.n	8000b5a <__aeabi_dsub+0xea>
 8000b58:	e1a6      	b.n	8000ea8 <__aeabi_dsub+0x438>
 8000b5a:	1b58      	subs	r0, r3, r5
 8000b5c:	3001      	adds	r0, #1
 8000b5e:	1a09      	subs	r1, r1, r0
 8000b60:	003c      	movs	r4, r7
 8000b62:	408f      	lsls	r7, r1
 8000b64:	40c4      	lsrs	r4, r0
 8000b66:	1e7b      	subs	r3, r7, #1
 8000b68:	419f      	sbcs	r7, r3
 8000b6a:	0013      	movs	r3, r2
 8000b6c:	408b      	lsls	r3, r1
 8000b6e:	4327      	orrs	r7, r4
 8000b70:	431f      	orrs	r7, r3
 8000b72:	40c2      	lsrs	r2, r0
 8000b74:	003b      	movs	r3, r7
 8000b76:	0014      	movs	r4, r2
 8000b78:	2500      	movs	r5, #0
 8000b7a:	4313      	orrs	r3, r2
 8000b7c:	d100      	bne.n	8000b80 <__aeabi_dsub+0x110>
 8000b7e:	e1f7      	b.n	8000f70 <__aeabi_dsub+0x500>
 8000b80:	077b      	lsls	r3, r7, #29
 8000b82:	d100      	bne.n	8000b86 <__aeabi_dsub+0x116>
 8000b84:	e377      	b.n	8001276 <__aeabi_dsub+0x806>
 8000b86:	230f      	movs	r3, #15
 8000b88:	0038      	movs	r0, r7
 8000b8a:	403b      	ands	r3, r7
 8000b8c:	2b04      	cmp	r3, #4
 8000b8e:	d004      	beq.n	8000b9a <__aeabi_dsub+0x12a>
 8000b90:	1d38      	adds	r0, r7, #4
 8000b92:	42b8      	cmp	r0, r7
 8000b94:	41bf      	sbcs	r7, r7
 8000b96:	427f      	negs	r7, r7
 8000b98:	19e4      	adds	r4, r4, r7
 8000b9a:	0223      	lsls	r3, r4, #8
 8000b9c:	d400      	bmi.n	8000ba0 <__aeabi_dsub+0x130>
 8000b9e:	e368      	b.n	8001272 <__aeabi_dsub+0x802>
 8000ba0:	4b8c      	ldr	r3, [pc, #560]	@ (8000dd4 <__aeabi_dsub+0x364>)
 8000ba2:	3501      	adds	r5, #1
 8000ba4:	429d      	cmp	r5, r3
 8000ba6:	d100      	bne.n	8000baa <__aeabi_dsub+0x13a>
 8000ba8:	e0f4      	b.n	8000d94 <__aeabi_dsub+0x324>
 8000baa:	4b8b      	ldr	r3, [pc, #556]	@ (8000dd8 <__aeabi_dsub+0x368>)
 8000bac:	056d      	lsls	r5, r5, #21
 8000bae:	401c      	ands	r4, r3
 8000bb0:	0d6d      	lsrs	r5, r5, #21
 8000bb2:	0767      	lsls	r7, r4, #29
 8000bb4:	08c0      	lsrs	r0, r0, #3
 8000bb6:	0264      	lsls	r4, r4, #9
 8000bb8:	4307      	orrs	r7, r0
 8000bba:	0b24      	lsrs	r4, r4, #12
 8000bbc:	e0ec      	b.n	8000d98 <__aeabi_dsub+0x328>
 8000bbe:	2b00      	cmp	r3, #0
 8000bc0:	dc00      	bgt.n	8000bc4 <__aeabi_dsub+0x154>
 8000bc2:	e329      	b.n	8001218 <__aeabi_dsub+0x7a8>
 8000bc4:	4649      	mov	r1, r9
 8000bc6:	2900      	cmp	r1, #0
 8000bc8:	d000      	beq.n	8000bcc <__aeabi_dsub+0x15c>
 8000bca:	e0d6      	b.n	8000d7a <__aeabi_dsub+0x30a>
 8000bcc:	4659      	mov	r1, fp
 8000bce:	4311      	orrs	r1, r2
 8000bd0:	d100      	bne.n	8000bd4 <__aeabi_dsub+0x164>
 8000bd2:	e12e      	b.n	8000e32 <__aeabi_dsub+0x3c2>
 8000bd4:	1e59      	subs	r1, r3, #1
 8000bd6:	2b01      	cmp	r3, #1
 8000bd8:	d100      	bne.n	8000bdc <__aeabi_dsub+0x16c>
 8000bda:	e1e6      	b.n	8000faa <__aeabi_dsub+0x53a>
 8000bdc:	42bb      	cmp	r3, r7
 8000bde:	d100      	bne.n	8000be2 <__aeabi_dsub+0x172>
 8000be0:	e182      	b.n	8000ee8 <__aeabi_dsub+0x478>
 8000be2:	2701      	movs	r7, #1
 8000be4:	000b      	movs	r3, r1
 8000be6:	2938      	cmp	r1, #56	@ 0x38
 8000be8:	dc14      	bgt.n	8000c14 <__aeabi_dsub+0x1a4>
 8000bea:	2b1f      	cmp	r3, #31
 8000bec:	dd00      	ble.n	8000bf0 <__aeabi_dsub+0x180>
 8000bee:	e23c      	b.n	800106a <__aeabi_dsub+0x5fa>
 8000bf0:	2720      	movs	r7, #32
 8000bf2:	1af9      	subs	r1, r7, r3
 8000bf4:	468c      	mov	ip, r1
 8000bf6:	4659      	mov	r1, fp
 8000bf8:	4667      	mov	r7, ip
 8000bfa:	40b9      	lsls	r1, r7
 8000bfc:	000f      	movs	r7, r1
 8000bfe:	0011      	movs	r1, r2
 8000c00:	40d9      	lsrs	r1, r3
 8000c02:	430f      	orrs	r7, r1
 8000c04:	4661      	mov	r1, ip
 8000c06:	408a      	lsls	r2, r1
 8000c08:	1e51      	subs	r1, r2, #1
 8000c0a:	418a      	sbcs	r2, r1
 8000c0c:	4659      	mov	r1, fp
 8000c0e:	40d9      	lsrs	r1, r3
 8000c10:	4317      	orrs	r7, r2
 8000c12:	1864      	adds	r4, r4, r1
 8000c14:	183f      	adds	r7, r7, r0
 8000c16:	4287      	cmp	r7, r0
 8000c18:	4180      	sbcs	r0, r0
 8000c1a:	4240      	negs	r0, r0
 8000c1c:	1824      	adds	r4, r4, r0
 8000c1e:	0223      	lsls	r3, r4, #8
 8000c20:	d400      	bmi.n	8000c24 <__aeabi_dsub+0x1b4>
 8000c22:	e0c6      	b.n	8000db2 <__aeabi_dsub+0x342>
 8000c24:	4b6b      	ldr	r3, [pc, #428]	@ (8000dd4 <__aeabi_dsub+0x364>)
 8000c26:	3501      	adds	r5, #1
 8000c28:	429d      	cmp	r5, r3
 8000c2a:	d100      	bne.n	8000c2e <__aeabi_dsub+0x1be>
 8000c2c:	e0b2      	b.n	8000d94 <__aeabi_dsub+0x324>
 8000c2e:	2101      	movs	r1, #1
 8000c30:	4b69      	ldr	r3, [pc, #420]	@ (8000dd8 <__aeabi_dsub+0x368>)
 8000c32:	087a      	lsrs	r2, r7, #1
 8000c34:	401c      	ands	r4, r3
 8000c36:	4039      	ands	r1, r7
 8000c38:	430a      	orrs	r2, r1
 8000c3a:	07e7      	lsls	r7, r4, #31
 8000c3c:	4317      	orrs	r7, r2
 8000c3e:	0864      	lsrs	r4, r4, #1
 8000c40:	e79e      	b.n	8000b80 <__aeabi_dsub+0x110>
 8000c42:	4b66      	ldr	r3, [pc, #408]	@ (8000ddc <__aeabi_dsub+0x36c>)
 8000c44:	4311      	orrs	r1, r2
 8000c46:	468a      	mov	sl, r1
 8000c48:	18eb      	adds	r3, r5, r3
 8000c4a:	2900      	cmp	r1, #0
 8000c4c:	d028      	beq.n	8000ca0 <__aeabi_dsub+0x230>
 8000c4e:	4566      	cmp	r6, ip
 8000c50:	d02c      	beq.n	8000cac <__aeabi_dsub+0x23c>
 8000c52:	2b00      	cmp	r3, #0
 8000c54:	d05b      	beq.n	8000d0e <__aeabi_dsub+0x29e>
 8000c56:	2d00      	cmp	r5, #0
 8000c58:	d100      	bne.n	8000c5c <__aeabi_dsub+0x1ec>
 8000c5a:	e12c      	b.n	8000eb6 <__aeabi_dsub+0x446>
 8000c5c:	465b      	mov	r3, fp
 8000c5e:	4666      	mov	r6, ip
 8000c60:	075f      	lsls	r7, r3, #29
 8000c62:	08d2      	lsrs	r2, r2, #3
 8000c64:	4317      	orrs	r7, r2
 8000c66:	08dd      	lsrs	r5, r3, #3
 8000c68:	003b      	movs	r3, r7
 8000c6a:	432b      	orrs	r3, r5
 8000c6c:	d100      	bne.n	8000c70 <__aeabi_dsub+0x200>
 8000c6e:	e0e2      	b.n	8000e36 <__aeabi_dsub+0x3c6>
 8000c70:	2480      	movs	r4, #128	@ 0x80
 8000c72:	0324      	lsls	r4, r4, #12
 8000c74:	432c      	orrs	r4, r5
 8000c76:	0324      	lsls	r4, r4, #12
 8000c78:	4d56      	ldr	r5, [pc, #344]	@ (8000dd4 <__aeabi_dsub+0x364>)
 8000c7a:	0b24      	lsrs	r4, r4, #12
 8000c7c:	e08c      	b.n	8000d98 <__aeabi_dsub+0x328>
 8000c7e:	4659      	mov	r1, fp
 8000c80:	4311      	orrs	r1, r2
 8000c82:	d100      	bne.n	8000c86 <__aeabi_dsub+0x216>
 8000c84:	e0d5      	b.n	8000e32 <__aeabi_dsub+0x3c2>
 8000c86:	1e59      	subs	r1, r3, #1
 8000c88:	2b01      	cmp	r3, #1
 8000c8a:	d100      	bne.n	8000c8e <__aeabi_dsub+0x21e>
 8000c8c:	e1b9      	b.n	8001002 <__aeabi_dsub+0x592>
 8000c8e:	42bb      	cmp	r3, r7
 8000c90:	d100      	bne.n	8000c94 <__aeabi_dsub+0x224>
 8000c92:	e1b1      	b.n	8000ff8 <__aeabi_dsub+0x588>
 8000c94:	2701      	movs	r7, #1
 8000c96:	000b      	movs	r3, r1
 8000c98:	2938      	cmp	r1, #56	@ 0x38
 8000c9a:	dd00      	ble.n	8000c9e <__aeabi_dsub+0x22e>
 8000c9c:	e740      	b.n	8000b20 <__aeabi_dsub+0xb0>
 8000c9e:	e72a      	b.n	8000af6 <__aeabi_dsub+0x86>
 8000ca0:	4661      	mov	r1, ip
 8000ca2:	2701      	movs	r7, #1
 8000ca4:	4079      	eors	r1, r7
 8000ca6:	468c      	mov	ip, r1
 8000ca8:	4566      	cmp	r6, ip
 8000caa:	d1d2      	bne.n	8000c52 <__aeabi_dsub+0x1e2>
 8000cac:	2b00      	cmp	r3, #0
 8000cae:	d100      	bne.n	8000cb2 <__aeabi_dsub+0x242>
 8000cb0:	e0c5      	b.n	8000e3e <__aeabi_dsub+0x3ce>
 8000cb2:	2d00      	cmp	r5, #0
 8000cb4:	d000      	beq.n	8000cb8 <__aeabi_dsub+0x248>
 8000cb6:	e155      	b.n	8000f64 <__aeabi_dsub+0x4f4>
 8000cb8:	464b      	mov	r3, r9
 8000cba:	0025      	movs	r5, r4
 8000cbc:	4305      	orrs	r5, r0
 8000cbe:	d100      	bne.n	8000cc2 <__aeabi_dsub+0x252>
 8000cc0:	e212      	b.n	80010e8 <__aeabi_dsub+0x678>
 8000cc2:	1e59      	subs	r1, r3, #1
 8000cc4:	468c      	mov	ip, r1
 8000cc6:	2b01      	cmp	r3, #1
 8000cc8:	d100      	bne.n	8000ccc <__aeabi_dsub+0x25c>
 8000cca:	e249      	b.n	8001160 <__aeabi_dsub+0x6f0>
 8000ccc:	4d41      	ldr	r5, [pc, #260]	@ (8000dd4 <__aeabi_dsub+0x364>)
 8000cce:	42ab      	cmp	r3, r5
 8000cd0:	d100      	bne.n	8000cd4 <__aeabi_dsub+0x264>
 8000cd2:	e28f      	b.n	80011f4 <__aeabi_dsub+0x784>
 8000cd4:	2701      	movs	r7, #1
 8000cd6:	2938      	cmp	r1, #56	@ 0x38
 8000cd8:	dc11      	bgt.n	8000cfe <__aeabi_dsub+0x28e>
 8000cda:	4663      	mov	r3, ip
 8000cdc:	2b1f      	cmp	r3, #31
 8000cde:	dd00      	ble.n	8000ce2 <__aeabi_dsub+0x272>
 8000ce0:	e25b      	b.n	800119a <__aeabi_dsub+0x72a>
 8000ce2:	4661      	mov	r1, ip
 8000ce4:	2320      	movs	r3, #32
 8000ce6:	0027      	movs	r7, r4
 8000ce8:	1a5b      	subs	r3, r3, r1
 8000cea:	0005      	movs	r5, r0
 8000cec:	4098      	lsls	r0, r3
 8000cee:	409f      	lsls	r7, r3
 8000cf0:	40cd      	lsrs	r5, r1
 8000cf2:	1e43      	subs	r3, r0, #1
 8000cf4:	4198      	sbcs	r0, r3
 8000cf6:	40cc      	lsrs	r4, r1
 8000cf8:	432f      	orrs	r7, r5
 8000cfa:	4307      	orrs	r7, r0
 8000cfc:	44a3      	add	fp, r4
 8000cfe:	18bf      	adds	r7, r7, r2
 8000d00:	4297      	cmp	r7, r2
 8000d02:	4192      	sbcs	r2, r2
 8000d04:	4252      	negs	r2, r2
 8000d06:	445a      	add	r2, fp
 8000d08:	0014      	movs	r4, r2
 8000d0a:	464d      	mov	r5, r9
 8000d0c:	e787      	b.n	8000c1e <__aeabi_dsub+0x1ae>
 8000d0e:	4f34      	ldr	r7, [pc, #208]	@ (8000de0 <__aeabi_dsub+0x370>)
 8000d10:	1c6b      	adds	r3, r5, #1
 8000d12:	423b      	tst	r3, r7
 8000d14:	d000      	beq.n	8000d18 <__aeabi_dsub+0x2a8>
 8000d16:	e0b6      	b.n	8000e86 <__aeabi_dsub+0x416>
 8000d18:	4659      	mov	r1, fp
 8000d1a:	0023      	movs	r3, r4
 8000d1c:	4311      	orrs	r1, r2
 8000d1e:	000f      	movs	r7, r1
 8000d20:	4303      	orrs	r3, r0
 8000d22:	2d00      	cmp	r5, #0
 8000d24:	d000      	beq.n	8000d28 <__aeabi_dsub+0x2b8>
 8000d26:	e126      	b.n	8000f76 <__aeabi_dsub+0x506>
 8000d28:	2b00      	cmp	r3, #0
 8000d2a:	d100      	bne.n	8000d2e <__aeabi_dsub+0x2be>
 8000d2c:	e1c0      	b.n	80010b0 <__aeabi_dsub+0x640>
 8000d2e:	2900      	cmp	r1, #0
 8000d30:	d100      	bne.n	8000d34 <__aeabi_dsub+0x2c4>
 8000d32:	e0a1      	b.n	8000e78 <__aeabi_dsub+0x408>
 8000d34:	1a83      	subs	r3, r0, r2
 8000d36:	4698      	mov	r8, r3
 8000d38:	465b      	mov	r3, fp
 8000d3a:	4540      	cmp	r0, r8
 8000d3c:	41ad      	sbcs	r5, r5
 8000d3e:	1ae3      	subs	r3, r4, r3
 8000d40:	426d      	negs	r5, r5
 8000d42:	1b5b      	subs	r3, r3, r5
 8000d44:	2580      	movs	r5, #128	@ 0x80
 8000d46:	042d      	lsls	r5, r5, #16
 8000d48:	422b      	tst	r3, r5
 8000d4a:	d100      	bne.n	8000d4e <__aeabi_dsub+0x2de>
 8000d4c:	e14b      	b.n	8000fe6 <__aeabi_dsub+0x576>
 8000d4e:	465b      	mov	r3, fp
 8000d50:	1a10      	subs	r0, r2, r0
 8000d52:	4282      	cmp	r2, r0
 8000d54:	4192      	sbcs	r2, r2
 8000d56:	1b1c      	subs	r4, r3, r4
 8000d58:	0007      	movs	r7, r0
 8000d5a:	2601      	movs	r6, #1
 8000d5c:	4663      	mov	r3, ip
 8000d5e:	4252      	negs	r2, r2
 8000d60:	1aa4      	subs	r4, r4, r2
 8000d62:	4327      	orrs	r7, r4
 8000d64:	401e      	ands	r6, r3
 8000d66:	2f00      	cmp	r7, #0
 8000d68:	d100      	bne.n	8000d6c <__aeabi_dsub+0x2fc>
 8000d6a:	e142      	b.n	8000ff2 <__aeabi_dsub+0x582>
 8000d6c:	422c      	tst	r4, r5
 8000d6e:	d100      	bne.n	8000d72 <__aeabi_dsub+0x302>
 8000d70:	e26d      	b.n	800124e <__aeabi_dsub+0x7de>
 8000d72:	4b19      	ldr	r3, [pc, #100]	@ (8000dd8 <__aeabi_dsub+0x368>)
 8000d74:	2501      	movs	r5, #1
 8000d76:	401c      	ands	r4, r3
 8000d78:	e71b      	b.n	8000bb2 <__aeabi_dsub+0x142>
 8000d7a:	42bd      	cmp	r5, r7
 8000d7c:	d100      	bne.n	8000d80 <__aeabi_dsub+0x310>
 8000d7e:	e13b      	b.n	8000ff8 <__aeabi_dsub+0x588>
 8000d80:	2701      	movs	r7, #1
 8000d82:	2b38      	cmp	r3, #56	@ 0x38
 8000d84:	dd00      	ble.n	8000d88 <__aeabi_dsub+0x318>
 8000d86:	e745      	b.n	8000c14 <__aeabi_dsub+0x1a4>
 8000d88:	2780      	movs	r7, #128	@ 0x80
 8000d8a:	4659      	mov	r1, fp
 8000d8c:	043f      	lsls	r7, r7, #16
 8000d8e:	4339      	orrs	r1, r7
 8000d90:	468b      	mov	fp, r1
 8000d92:	e72a      	b.n	8000bea <__aeabi_dsub+0x17a>
 8000d94:	2400      	movs	r4, #0
 8000d96:	2700      	movs	r7, #0
 8000d98:	052d      	lsls	r5, r5, #20
 8000d9a:	4325      	orrs	r5, r4
 8000d9c:	07f6      	lsls	r6, r6, #31
 8000d9e:	4335      	orrs	r5, r6
 8000da0:	0038      	movs	r0, r7
 8000da2:	0029      	movs	r1, r5
 8000da4:	b003      	add	sp, #12
 8000da6:	bcf0      	pop	{r4, r5, r6, r7}
 8000da8:	46bb      	mov	fp, r7
 8000daa:	46b2      	mov	sl, r6
 8000dac:	46a9      	mov	r9, r5
 8000dae:	46a0      	mov	r8, r4
 8000db0:	bdf0      	pop	{r4, r5, r6, r7, pc}
 8000db2:	077b      	lsls	r3, r7, #29
 8000db4:	d004      	beq.n	8000dc0 <__aeabi_dsub+0x350>
 8000db6:	230f      	movs	r3, #15
 8000db8:	403b      	ands	r3, r7
 8000dba:	2b04      	cmp	r3, #4
 8000dbc:	d000      	beq.n	8000dc0 <__aeabi_dsub+0x350>
 8000dbe:	e6e7      	b.n	8000b90 <__aeabi_dsub+0x120>
 8000dc0:	002b      	movs	r3, r5
 8000dc2:	08f8      	lsrs	r0, r7, #3
 8000dc4:	4a03      	ldr	r2, [pc, #12]	@ (8000dd4 <__aeabi_dsub+0x364>)
 8000dc6:	0767      	lsls	r7, r4, #29
 8000dc8:	4307      	orrs	r7, r0
 8000dca:	08e5      	lsrs	r5, r4, #3
 8000dcc:	4293      	cmp	r3, r2
 8000dce:	d100      	bne.n	8000dd2 <__aeabi_dsub+0x362>
 8000dd0:	e74a      	b.n	8000c68 <__aeabi_dsub+0x1f8>
 8000dd2:	e0a5      	b.n	8000f20 <__aeabi_dsub+0x4b0>
 8000dd4:	000007ff 	.word	0x000007ff
 8000dd8:	ff7fffff 	.word	0xff7fffff
 8000ddc:	fffff801 	.word	0xfffff801
 8000de0:	000007fe 	.word	0x000007fe
 8000de4:	0038      	movs	r0, r7
 8000de6:	f000 faf5 	bl	80013d4 <__clzsi2>
 8000dea:	0003      	movs	r3, r0
 8000dec:	3318      	adds	r3, #24
 8000dee:	2b1f      	cmp	r3, #31
 8000df0:	dc00      	bgt.n	8000df4 <__aeabi_dsub+0x384>
 8000df2:	e6a7      	b.n	8000b44 <__aeabi_dsub+0xd4>
 8000df4:	003a      	movs	r2, r7
 8000df6:	3808      	subs	r0, #8
 8000df8:	4082      	lsls	r2, r0
 8000dfa:	429d      	cmp	r5, r3
 8000dfc:	dd00      	ble.n	8000e00 <__aeabi_dsub+0x390>
 8000dfe:	e08a      	b.n	8000f16 <__aeabi_dsub+0x4a6>
 8000e00:	1b5b      	subs	r3, r3, r5
 8000e02:	1c58      	adds	r0, r3, #1
 8000e04:	281f      	cmp	r0, #31
 8000e06:	dc00      	bgt.n	8000e0a <__aeabi_dsub+0x39a>
 8000e08:	e1d8      	b.n	80011bc <__aeabi_dsub+0x74c>
 8000e0a:	0017      	movs	r7, r2
 8000e0c:	3b1f      	subs	r3, #31
 8000e0e:	40df      	lsrs	r7, r3
 8000e10:	2820      	cmp	r0, #32
 8000e12:	d005      	beq.n	8000e20 <__aeabi_dsub+0x3b0>
 8000e14:	2340      	movs	r3, #64	@ 0x40
 8000e16:	1a1b      	subs	r3, r3, r0
 8000e18:	409a      	lsls	r2, r3
 8000e1a:	1e53      	subs	r3, r2, #1
 8000e1c:	419a      	sbcs	r2, r3
 8000e1e:	4317      	orrs	r7, r2
 8000e20:	2500      	movs	r5, #0
 8000e22:	2f00      	cmp	r7, #0
 8000e24:	d100      	bne.n	8000e28 <__aeabi_dsub+0x3b8>
 8000e26:	e0e5      	b.n	8000ff4 <__aeabi_dsub+0x584>
 8000e28:	077b      	lsls	r3, r7, #29
 8000e2a:	d000      	beq.n	8000e2e <__aeabi_dsub+0x3be>
 8000e2c:	e6ab      	b.n	8000b86 <__aeabi_dsub+0x116>
 8000e2e:	002c      	movs	r4, r5
 8000e30:	e7c6      	b.n	8000dc0 <__aeabi_dsub+0x350>
 8000e32:	08c0      	lsrs	r0, r0, #3
 8000e34:	e7c6      	b.n	8000dc4 <__aeabi_dsub+0x354>
 8000e36:	2700      	movs	r7, #0
 8000e38:	2400      	movs	r4, #0
 8000e3a:	4dd1      	ldr	r5, [pc, #836]	@ (8001180 <__aeabi_dsub+0x710>)
 8000e3c:	e7ac      	b.n	8000d98 <__aeabi_dsub+0x328>
 8000e3e:	4fd1      	ldr	r7, [pc, #836]	@ (8001184 <__aeabi_dsub+0x714>)
 8000e40:	1c6b      	adds	r3, r5, #1
 8000e42:	423b      	tst	r3, r7
 8000e44:	d171      	bne.n	8000f2a <__aeabi_dsub+0x4ba>
 8000e46:	0023      	movs	r3, r4
 8000e48:	4303      	orrs	r3, r0
 8000e4a:	2d00      	cmp	r5, #0
 8000e4c:	d000      	beq.n	8000e50 <__aeabi_dsub+0x3e0>
 8000e4e:	e14e      	b.n	80010ee <__aeabi_dsub+0x67e>
 8000e50:	4657      	mov	r7, sl
 8000e52:	2b00      	cmp	r3, #0
 8000e54:	d100      	bne.n	8000e58 <__aeabi_dsub+0x3e8>
 8000e56:	e1b5      	b.n	80011c4 <__aeabi_dsub+0x754>
 8000e58:	2f00      	cmp	r7, #0
 8000e5a:	d00d      	beq.n	8000e78 <__aeabi_dsub+0x408>
 8000e5c:	1883      	adds	r3, r0, r2
 8000e5e:	4283      	cmp	r3, r0
 8000e60:	4180      	sbcs	r0, r0
 8000e62:	445c      	add	r4, fp
 8000e64:	4240      	negs	r0, r0
 8000e66:	1824      	adds	r4, r4, r0
 8000e68:	0222      	lsls	r2, r4, #8
 8000e6a:	d500      	bpl.n	8000e6e <__aeabi_dsub+0x3fe>
 8000e6c:	e1c8      	b.n	8001200 <__aeabi_dsub+0x790>
 8000e6e:	001f      	movs	r7, r3
 8000e70:	4698      	mov	r8, r3
 8000e72:	4327      	orrs	r7, r4
 8000e74:	d100      	bne.n	8000e78 <__aeabi_dsub+0x408>
 8000e76:	e0bc      	b.n	8000ff2 <__aeabi_dsub+0x582>
 8000e78:	4643      	mov	r3, r8
 8000e7a:	0767      	lsls	r7, r4, #29
 8000e7c:	08db      	lsrs	r3, r3, #3
 8000e7e:	431f      	orrs	r7, r3
 8000e80:	08e5      	lsrs	r5, r4, #3
 8000e82:	2300      	movs	r3, #0
 8000e84:	e04c      	b.n	8000f20 <__aeabi_dsub+0x4b0>
 8000e86:	1a83      	subs	r3, r0, r2
 8000e88:	4698      	mov	r8, r3
 8000e8a:	465b      	mov	r3, fp
 8000e8c:	4540      	cmp	r0, r8
 8000e8e:	41bf      	sbcs	r7, r7
 8000e90:	1ae3      	subs	r3, r4, r3
 8000e92:	427f      	negs	r7, r7
 8000e94:	1bdb      	subs	r3, r3, r7
 8000e96:	021f      	lsls	r7, r3, #8
 8000e98:	d47c      	bmi.n	8000f94 <__aeabi_dsub+0x524>
 8000e9a:	4647      	mov	r7, r8
 8000e9c:	431f      	orrs	r7, r3
 8000e9e:	d100      	bne.n	8000ea2 <__aeabi_dsub+0x432>
 8000ea0:	e0a6      	b.n	8000ff0 <__aeabi_dsub+0x580>
 8000ea2:	001c      	movs	r4, r3
 8000ea4:	4647      	mov	r7, r8
 8000ea6:	e645      	b.n	8000b34 <__aeabi_dsub+0xc4>
 8000ea8:	4cb7      	ldr	r4, [pc, #732]	@ (8001188 <__aeabi_dsub+0x718>)
 8000eaa:	1aed      	subs	r5, r5, r3
 8000eac:	4014      	ands	r4, r2
 8000eae:	077b      	lsls	r3, r7, #29
 8000eb0:	d000      	beq.n	8000eb4 <__aeabi_dsub+0x444>
 8000eb2:	e780      	b.n	8000db6 <__aeabi_dsub+0x346>
 8000eb4:	e784      	b.n	8000dc0 <__aeabi_dsub+0x350>
 8000eb6:	464b      	mov	r3, r9
 8000eb8:	0025      	movs	r5, r4
 8000eba:	4305      	orrs	r5, r0
 8000ebc:	d066      	beq.n	8000f8c <__aeabi_dsub+0x51c>
 8000ebe:	1e5f      	subs	r7, r3, #1
 8000ec0:	2b01      	cmp	r3, #1
 8000ec2:	d100      	bne.n	8000ec6 <__aeabi_dsub+0x456>
 8000ec4:	e0fc      	b.n	80010c0 <__aeabi_dsub+0x650>
 8000ec6:	4dae      	ldr	r5, [pc, #696]	@ (8001180 <__aeabi_dsub+0x710>)
 8000ec8:	42ab      	cmp	r3, r5
 8000eca:	d100      	bne.n	8000ece <__aeabi_dsub+0x45e>
 8000ecc:	e15e      	b.n	800118c <__aeabi_dsub+0x71c>
 8000ece:	4666      	mov	r6, ip
 8000ed0:	2f38      	cmp	r7, #56	@ 0x38
 8000ed2:	dc00      	bgt.n	8000ed6 <__aeabi_dsub+0x466>
 8000ed4:	e0b4      	b.n	8001040 <__aeabi_dsub+0x5d0>
 8000ed6:	2001      	movs	r0, #1
 8000ed8:	1a17      	subs	r7, r2, r0
 8000eda:	42ba      	cmp	r2, r7
 8000edc:	4192      	sbcs	r2, r2
 8000ede:	465b      	mov	r3, fp
 8000ee0:	4252      	negs	r2, r2
 8000ee2:	464d      	mov	r5, r9
 8000ee4:	1a9c      	subs	r4, r3, r2
 8000ee6:	e620      	b.n	8000b2a <__aeabi_dsub+0xba>
 8000ee8:	0767      	lsls	r7, r4, #29
 8000eea:	08c0      	lsrs	r0, r0, #3
 8000eec:	4307      	orrs	r7, r0
 8000eee:	08e5      	lsrs	r5, r4, #3
 8000ef0:	e6ba      	b.n	8000c68 <__aeabi_dsub+0x1f8>
 8000ef2:	001f      	movs	r7, r3
 8000ef4:	4659      	mov	r1, fp
 8000ef6:	3f20      	subs	r7, #32
 8000ef8:	40f9      	lsrs	r1, r7
 8000efa:	000f      	movs	r7, r1
 8000efc:	2b20      	cmp	r3, #32
 8000efe:	d005      	beq.n	8000f0c <__aeabi_dsub+0x49c>
 8000f00:	2140      	movs	r1, #64	@ 0x40
 8000f02:	1acb      	subs	r3, r1, r3
 8000f04:	4659      	mov	r1, fp
 8000f06:	4099      	lsls	r1, r3
 8000f08:	430a      	orrs	r2, r1
 8000f0a:	4692      	mov	sl, r2
 8000f0c:	4653      	mov	r3, sl
 8000f0e:	1e5a      	subs	r2, r3, #1
 8000f10:	4193      	sbcs	r3, r2
 8000f12:	431f      	orrs	r7, r3
 8000f14:	e604      	b.n	8000b20 <__aeabi_dsub+0xb0>
 8000f16:	1aeb      	subs	r3, r5, r3
 8000f18:	4d9b      	ldr	r5, [pc, #620]	@ (8001188 <__aeabi_dsub+0x718>)
 8000f1a:	4015      	ands	r5, r2
 8000f1c:	076f      	lsls	r7, r5, #29
 8000f1e:	08ed      	lsrs	r5, r5, #3
 8000f20:	032c      	lsls	r4, r5, #12
 8000f22:	055d      	lsls	r5, r3, #21
 8000f24:	0b24      	lsrs	r4, r4, #12
 8000f26:	0d6d      	lsrs	r5, r5, #21
 8000f28:	e736      	b.n	8000d98 <__aeabi_dsub+0x328>
 8000f2a:	4d95      	ldr	r5, [pc, #596]	@ (8001180 <__aeabi_dsub+0x710>)
 8000f2c:	42ab      	cmp	r3, r5
 8000f2e:	d100      	bne.n	8000f32 <__aeabi_dsub+0x4c2>
 8000f30:	e0d6      	b.n	80010e0 <__aeabi_dsub+0x670>
 8000f32:	1882      	adds	r2, r0, r2
 8000f34:	0021      	movs	r1, r4
 8000f36:	4282      	cmp	r2, r0
 8000f38:	4180      	sbcs	r0, r0
 8000f3a:	4459      	add	r1, fp
 8000f3c:	4240      	negs	r0, r0
 8000f3e:	1808      	adds	r0, r1, r0
 8000f40:	07c7      	lsls	r7, r0, #31
 8000f42:	0852      	lsrs	r2, r2, #1
 8000f44:	4317      	orrs	r7, r2
 8000f46:	0844      	lsrs	r4, r0, #1
 8000f48:	0752      	lsls	r2, r2, #29
 8000f4a:	d400      	bmi.n	8000f4e <__aeabi_dsub+0x4de>
 8000f4c:	e185      	b.n	800125a <__aeabi_dsub+0x7ea>
 8000f4e:	220f      	movs	r2, #15
 8000f50:	001d      	movs	r5, r3
 8000f52:	403a      	ands	r2, r7
 8000f54:	2a04      	cmp	r2, #4
 8000f56:	d000      	beq.n	8000f5a <__aeabi_dsub+0x4ea>
 8000f58:	e61a      	b.n	8000b90 <__aeabi_dsub+0x120>
 8000f5a:	08ff      	lsrs	r7, r7, #3
 8000f5c:	0764      	lsls	r4, r4, #29
 8000f5e:	4327      	orrs	r7, r4
 8000f60:	0905      	lsrs	r5, r0, #4
 8000f62:	e7dd      	b.n	8000f20 <__aeabi_dsub+0x4b0>
 8000f64:	465b      	mov	r3, fp
 8000f66:	08d2      	lsrs	r2, r2, #3
 8000f68:	075f      	lsls	r7, r3, #29
 8000f6a:	4317      	orrs	r7, r2
 8000f6c:	08dd      	lsrs	r5, r3, #3
 8000f6e:	e67b      	b.n	8000c68 <__aeabi_dsub+0x1f8>
 8000f70:	2700      	movs	r7, #0
 8000f72:	2400      	movs	r4, #0
 8000f74:	e710      	b.n	8000d98 <__aeabi_dsub+0x328>
 8000f76:	2b00      	cmp	r3, #0
 8000f78:	d000      	beq.n	8000f7c <__aeabi_dsub+0x50c>
 8000f7a:	e0d6      	b.n	800112a <__aeabi_dsub+0x6ba>
 8000f7c:	2900      	cmp	r1, #0
 8000f7e:	d000      	beq.n	8000f82 <__aeabi_dsub+0x512>
 8000f80:	e12f      	b.n	80011e2 <__aeabi_dsub+0x772>
 8000f82:	2480      	movs	r4, #128	@ 0x80
 8000f84:	2600      	movs	r6, #0
 8000f86:	4d7e      	ldr	r5, [pc, #504]	@ (8001180 <__aeabi_dsub+0x710>)
 8000f88:	0324      	lsls	r4, r4, #12
 8000f8a:	e705      	b.n	8000d98 <__aeabi_dsub+0x328>
 8000f8c:	4666      	mov	r6, ip
 8000f8e:	465c      	mov	r4, fp
 8000f90:	08d0      	lsrs	r0, r2, #3
 8000f92:	e717      	b.n	8000dc4 <__aeabi_dsub+0x354>
 8000f94:	465b      	mov	r3, fp
 8000f96:	1a17      	subs	r7, r2, r0
 8000f98:	42ba      	cmp	r2, r7
 8000f9a:	4192      	sbcs	r2, r2
 8000f9c:	1b1c      	subs	r4, r3, r4
 8000f9e:	2601      	movs	r6, #1
 8000fa0:	4663      	mov	r3, ip
 8000fa2:	4252      	negs	r2, r2
 8000fa4:	1aa4      	subs	r4, r4, r2
 8000fa6:	401e      	ands	r6, r3
 8000fa8:	e5c4      	b.n	8000b34 <__aeabi_dsub+0xc4>
 8000faa:	1883      	adds	r3, r0, r2
 8000fac:	4283      	cmp	r3, r0
 8000fae:	4180      	sbcs	r0, r0
 8000fb0:	445c      	add	r4, fp
 8000fb2:	4240      	negs	r0, r0
 8000fb4:	1825      	adds	r5, r4, r0
 8000fb6:	022a      	lsls	r2, r5, #8
 8000fb8:	d400      	bmi.n	8000fbc <__aeabi_dsub+0x54c>
 8000fba:	e0da      	b.n	8001172 <__aeabi_dsub+0x702>
 8000fbc:	4a72      	ldr	r2, [pc, #456]	@ (8001188 <__aeabi_dsub+0x718>)
 8000fbe:	085b      	lsrs	r3, r3, #1
 8000fc0:	4015      	ands	r5, r2
 8000fc2:	07ea      	lsls	r2, r5, #31
 8000fc4:	431a      	orrs	r2, r3
 8000fc6:	0869      	lsrs	r1, r5, #1
 8000fc8:	075b      	lsls	r3, r3, #29
 8000fca:	d400      	bmi.n	8000fce <__aeabi_dsub+0x55e>
 8000fcc:	e14a      	b.n	8001264 <__aeabi_dsub+0x7f4>
 8000fce:	230f      	movs	r3, #15
 8000fd0:	4013      	ands	r3, r2
 8000fd2:	2b04      	cmp	r3, #4
 8000fd4:	d100      	bne.n	8000fd8 <__aeabi_dsub+0x568>
 8000fd6:	e0fc      	b.n	80011d2 <__aeabi_dsub+0x762>
 8000fd8:	1d17      	adds	r7, r2, #4
 8000fda:	4297      	cmp	r7, r2
 8000fdc:	41a4      	sbcs	r4, r4
 8000fde:	4264      	negs	r4, r4
 8000fe0:	2502      	movs	r5, #2
 8000fe2:	1864      	adds	r4, r4, r1
 8000fe4:	e6ec      	b.n	8000dc0 <__aeabi_dsub+0x350>
 8000fe6:	4647      	mov	r7, r8
 8000fe8:	001c      	movs	r4, r3
 8000fea:	431f      	orrs	r7, r3
 8000fec:	d000      	beq.n	8000ff0 <__aeabi_dsub+0x580>
 8000fee:	e743      	b.n	8000e78 <__aeabi_dsub+0x408>
 8000ff0:	2600      	movs	r6, #0
 8000ff2:	2500      	movs	r5, #0
 8000ff4:	2400      	movs	r4, #0
 8000ff6:	e6cf      	b.n	8000d98 <__aeabi_dsub+0x328>
 8000ff8:	08c0      	lsrs	r0, r0, #3
 8000ffa:	0767      	lsls	r7, r4, #29
 8000ffc:	4307      	orrs	r7, r0
 8000ffe:	08e5      	lsrs	r5, r4, #3
 8001000:	e632      	b.n	8000c68 <__aeabi_dsub+0x1f8>
 8001002:	1a87      	subs	r7, r0, r2
 8001004:	465b      	mov	r3, fp
 8001006:	42b8      	cmp	r0, r7
 8001008:	4180      	sbcs	r0, r0
 800100a:	1ae4      	subs	r4, r4, r3
 800100c:	4240      	negs	r0, r0
 800100e:	1a24      	subs	r4, r4, r0
 8001010:	0223      	lsls	r3, r4, #8
 8001012:	d428      	bmi.n	8001066 <__aeabi_dsub+0x5f6>
 8001014:	0763      	lsls	r3, r4, #29
 8001016:	08ff      	lsrs	r7, r7, #3
 8001018:	431f      	orrs	r7, r3
 800101a:	08e5      	lsrs	r5, r4, #3
 800101c:	2301      	movs	r3, #1
 800101e:	e77f      	b.n	8000f20 <__aeabi_dsub+0x4b0>
 8001020:	2b00      	cmp	r3, #0
 8001022:	d100      	bne.n	8001026 <__aeabi_dsub+0x5b6>
 8001024:	e673      	b.n	8000d0e <__aeabi_dsub+0x29e>
 8001026:	464b      	mov	r3, r9
 8001028:	1b5f      	subs	r7, r3, r5
 800102a:	003b      	movs	r3, r7
 800102c:	2d00      	cmp	r5, #0
 800102e:	d100      	bne.n	8001032 <__aeabi_dsub+0x5c2>
 8001030:	e742      	b.n	8000eb8 <__aeabi_dsub+0x448>
 8001032:	2f38      	cmp	r7, #56	@ 0x38
 8001034:	dd00      	ble.n	8001038 <__aeabi_dsub+0x5c8>
 8001036:	e0ec      	b.n	8001212 <__aeabi_dsub+0x7a2>
 8001038:	2380      	movs	r3, #128	@ 0x80
 800103a:	000e      	movs	r6, r1
 800103c:	041b      	lsls	r3, r3, #16
 800103e:	431c      	orrs	r4, r3
 8001040:	2f1f      	cmp	r7, #31
 8001042:	dc25      	bgt.n	8001090 <__aeabi_dsub+0x620>
 8001044:	2520      	movs	r5, #32
 8001046:	0023      	movs	r3, r4
 8001048:	1bed      	subs	r5, r5, r7
 800104a:	0001      	movs	r1, r0
 800104c:	40a8      	lsls	r0, r5
 800104e:	40ab      	lsls	r3, r5
 8001050:	40f9      	lsrs	r1, r7
 8001052:	1e45      	subs	r5, r0, #1
 8001054:	41a8      	sbcs	r0, r5
 8001056:	430b      	orrs	r3, r1
 8001058:	40fc      	lsrs	r4, r7
 800105a:	4318      	orrs	r0, r3
 800105c:	465b      	mov	r3, fp
 800105e:	1b1b      	subs	r3, r3, r4
 8001060:	469b      	mov	fp, r3
 8001062:	e739      	b.n	8000ed8 <__aeabi_dsub+0x468>
 8001064:	4666      	mov	r6, ip
 8001066:	2501      	movs	r5, #1
 8001068:	e562      	b.n	8000b30 <__aeabi_dsub+0xc0>
 800106a:	001f      	movs	r7, r3
 800106c:	4659      	mov	r1, fp
 800106e:	3f20      	subs	r7, #32
 8001070:	40f9      	lsrs	r1, r7
 8001072:	468c      	mov	ip, r1
 8001074:	2b20      	cmp	r3, #32
 8001076:	d005      	beq.n	8001084 <__aeabi_dsub+0x614>
 8001078:	2740      	movs	r7, #64	@ 0x40
 800107a:	4659      	mov	r1, fp
 800107c:	1afb      	subs	r3, r7, r3
 800107e:	4099      	lsls	r1, r3
 8001080:	430a      	orrs	r2, r1
 8001082:	4692      	mov	sl, r2
 8001084:	4657      	mov	r7, sl
 8001086:	1e7b      	subs	r3, r7, #1
 8001088:	419f      	sbcs	r7, r3
 800108a:	4663      	mov	r3, ip
 800108c:	431f      	orrs	r7, r3
 800108e:	e5c1      	b.n	8000c14 <__aeabi_dsub+0x1a4>
 8001090:	003b      	movs	r3, r7
 8001092:	0025      	movs	r5, r4
 8001094:	3b20      	subs	r3, #32
 8001096:	40dd      	lsrs	r5, r3
 8001098:	2f20      	cmp	r7, #32
 800109a:	d004      	beq.n	80010a6 <__aeabi_dsub+0x636>
 800109c:	2340      	movs	r3, #64	@ 0x40
 800109e:	1bdb      	subs	r3, r3, r7
 80010a0:	409c      	lsls	r4, r3
 80010a2:	4320      	orrs	r0, r4
 80010a4:	4680      	mov	r8, r0
 80010a6:	4640      	mov	r0, r8
 80010a8:	1e43      	subs	r3, r0, #1
 80010aa:	4198      	sbcs	r0, r3
 80010ac:	4328      	orrs	r0, r5
 80010ae:	e713      	b.n	8000ed8 <__aeabi_dsub+0x468>
 80010b0:	2900      	cmp	r1, #0
 80010b2:	d09d      	beq.n	8000ff0 <__aeabi_dsub+0x580>
 80010b4:	2601      	movs	r6, #1
 80010b6:	4663      	mov	r3, ip
 80010b8:	465c      	mov	r4, fp
 80010ba:	4690      	mov	r8, r2
 80010bc:	401e      	ands	r6, r3
 80010be:	e6db      	b.n	8000e78 <__aeabi_dsub+0x408>
 80010c0:	1a17      	subs	r7, r2, r0
 80010c2:	465b      	mov	r3, fp
 80010c4:	42ba      	cmp	r2, r7
 80010c6:	4192      	sbcs	r2, r2
 80010c8:	1b1c      	subs	r4, r3, r4
 80010ca:	4252      	negs	r2, r2
 80010cc:	1aa4      	subs	r4, r4, r2
 80010ce:	0223      	lsls	r3, r4, #8
 80010d0:	d4c8      	bmi.n	8001064 <__aeabi_dsub+0x5f4>
 80010d2:	0763      	lsls	r3, r4, #29
 80010d4:	08ff      	lsrs	r7, r7, #3
 80010d6:	431f      	orrs	r7, r3
 80010d8:	4666      	mov	r6, ip
 80010da:	2301      	movs	r3, #1
 80010dc:	08e5      	lsrs	r5, r4, #3
 80010de:	e71f      	b.n	8000f20 <__aeabi_dsub+0x4b0>
 80010e0:	001d      	movs	r5, r3
 80010e2:	2400      	movs	r4, #0
 80010e4:	2700      	movs	r7, #0
 80010e6:	e657      	b.n	8000d98 <__aeabi_dsub+0x328>
 80010e8:	465c      	mov	r4, fp
 80010ea:	08d0      	lsrs	r0, r2, #3
 80010ec:	e66a      	b.n	8000dc4 <__aeabi_dsub+0x354>
 80010ee:	2b00      	cmp	r3, #0
 80010f0:	d100      	bne.n	80010f4 <__aeabi_dsub+0x684>
 80010f2:	e737      	b.n	8000f64 <__aeabi_dsub+0x4f4>
 80010f4:	4653      	mov	r3, sl
 80010f6:	08c0      	lsrs	r0, r0, #3
 80010f8:	0767      	lsls	r7, r4, #29
 80010fa:	4307      	orrs	r7, r0
 80010fc:	08e5      	lsrs	r5, r4, #3
 80010fe:	2b00      	cmp	r3, #0
 8001100:	d100      	bne.n	8001104 <__aeabi_dsub+0x694>
 8001102:	e5b1      	b.n	8000c68 <__aeabi_dsub+0x1f8>
 8001104:	2380      	movs	r3, #128	@ 0x80
 8001106:	031b      	lsls	r3, r3, #12
 8001108:	421d      	tst	r5, r3
 800110a:	d008      	beq.n	800111e <__aeabi_dsub+0x6ae>
 800110c:	4659      	mov	r1, fp
 800110e:	08c8      	lsrs	r0, r1, #3
 8001110:	4218      	tst	r0, r3
 8001112:	d104      	bne.n	800111e <__aeabi_dsub+0x6ae>
 8001114:	08d2      	lsrs	r2, r2, #3
 8001116:	0749      	lsls	r1, r1, #29
 8001118:	430a      	orrs	r2, r1
 800111a:	0017      	movs	r7, r2
 800111c:	0005      	movs	r5, r0
 800111e:	0f7b      	lsrs	r3, r7, #29
 8001120:	00ff      	lsls	r7, r7, #3
 8001122:	08ff      	lsrs	r7, r7, #3
 8001124:	075b      	lsls	r3, r3, #29
 8001126:	431f      	orrs	r7, r3
 8001128:	e59e      	b.n	8000c68 <__aeabi_dsub+0x1f8>
 800112a:	08c0      	lsrs	r0, r0, #3
 800112c:	0763      	lsls	r3, r4, #29
 800112e:	4318      	orrs	r0, r3
 8001130:	08e5      	lsrs	r5, r4, #3
 8001132:	2900      	cmp	r1, #0
 8001134:	d053      	beq.n	80011de <__aeabi_dsub+0x76e>
 8001136:	2380      	movs	r3, #128	@ 0x80
 8001138:	031b      	lsls	r3, r3, #12
 800113a:	421d      	tst	r5, r3
 800113c:	d00a      	beq.n	8001154 <__aeabi_dsub+0x6e4>
 800113e:	4659      	mov	r1, fp
 8001140:	08cc      	lsrs	r4, r1, #3
 8001142:	421c      	tst	r4, r3
 8001144:	d106      	bne.n	8001154 <__aeabi_dsub+0x6e4>
 8001146:	2601      	movs	r6, #1
 8001148:	4663      	mov	r3, ip
 800114a:	0025      	movs	r5, r4
 800114c:	08d0      	lsrs	r0, r2, #3
 800114e:	0749      	lsls	r1, r1, #29
 8001150:	4308      	orrs	r0, r1
 8001152:	401e      	ands	r6, r3
 8001154:	0f47      	lsrs	r7, r0, #29
 8001156:	00c0      	lsls	r0, r0, #3
 8001158:	08c0      	lsrs	r0, r0, #3
 800115a:	077f      	lsls	r7, r7, #29
 800115c:	4307      	orrs	r7, r0
 800115e:	e583      	b.n	8000c68 <__aeabi_dsub+0x1f8>
 8001160:	1883      	adds	r3, r0, r2
 8001162:	4293      	cmp	r3, r2
 8001164:	4192      	sbcs	r2, r2
 8001166:	445c      	add	r4, fp
 8001168:	4252      	negs	r2, r2
 800116a:	18a5      	adds	r5, r4, r2
 800116c:	022a      	lsls	r2, r5, #8
 800116e:	d500      	bpl.n	8001172 <__aeabi_dsub+0x702>
 8001170:	e724      	b.n	8000fbc <__aeabi_dsub+0x54c>
 8001172:	076f      	lsls	r7, r5, #29
 8001174:	08db      	lsrs	r3, r3, #3
 8001176:	431f      	orrs	r7, r3
 8001178:	08ed      	lsrs	r5, r5, #3
 800117a:	2301      	movs	r3, #1
 800117c:	e6d0      	b.n	8000f20 <__aeabi_dsub+0x4b0>
 800117e:	46c0      	nop			@ (mov r8, r8)
 8001180:	000007ff 	.word	0x000007ff
 8001184:	000007fe 	.word	0x000007fe
 8001188:	ff7fffff 	.word	0xff7fffff
 800118c:	465b      	mov	r3, fp
 800118e:	08d2      	lsrs	r2, r2, #3
 8001190:	075f      	lsls	r7, r3, #29
 8001192:	4666      	mov	r6, ip
 8001194:	4317      	orrs	r7, r2
 8001196:	08dd      	lsrs	r5, r3, #3
 8001198:	e566      	b.n	8000c68 <__aeabi_dsub+0x1f8>
 800119a:	0025      	movs	r5, r4
 800119c:	3b20      	subs	r3, #32
 800119e:	40dd      	lsrs	r5, r3
 80011a0:	4663      	mov	r3, ip
 80011a2:	2b20      	cmp	r3, #32
 80011a4:	d005      	beq.n	80011b2 <__aeabi_dsub+0x742>
 80011a6:	2340      	movs	r3, #64	@ 0x40
 80011a8:	4661      	mov	r1, ip
 80011aa:	1a5b      	subs	r3, r3, r1
 80011ac:	409c      	lsls	r4, r3
 80011ae:	4320      	orrs	r0, r4
 80011b0:	4680      	mov	r8, r0
 80011b2:	4647      	mov	r7, r8
 80011b4:	1e7b      	subs	r3, r7, #1
 80011b6:	419f      	sbcs	r7, r3
 80011b8:	432f      	orrs	r7, r5
 80011ba:	e5a0      	b.n	8000cfe <__aeabi_dsub+0x28e>
 80011bc:	2120      	movs	r1, #32
 80011be:	2700      	movs	r7, #0
 80011c0:	1a09      	subs	r1, r1, r0
 80011c2:	e4d2      	b.n	8000b6a <__aeabi_dsub+0xfa>
 80011c4:	2f00      	cmp	r7, #0
 80011c6:	d100      	bne.n	80011ca <__aeabi_dsub+0x75a>
 80011c8:	e713      	b.n	8000ff2 <__aeabi_dsub+0x582>
 80011ca:	465c      	mov	r4, fp
 80011cc:	0017      	movs	r7, r2
 80011ce:	2500      	movs	r5, #0
 80011d0:	e5f6      	b.n	8000dc0 <__aeabi_dsub+0x350>
 80011d2:	08d7      	lsrs	r7, r2, #3
 80011d4:	0749      	lsls	r1, r1, #29
 80011d6:	2302      	movs	r3, #2
 80011d8:	430f      	orrs	r7, r1
 80011da:	092d      	lsrs	r5, r5, #4
 80011dc:	e6a0      	b.n	8000f20 <__aeabi_dsub+0x4b0>
 80011de:	0007      	movs	r7, r0
 80011e0:	e542      	b.n	8000c68 <__aeabi_dsub+0x1f8>
 80011e2:	465b      	mov	r3, fp
 80011e4:	2601      	movs	r6, #1
 80011e6:	075f      	lsls	r7, r3, #29
 80011e8:	08dd      	lsrs	r5, r3, #3
 80011ea:	4663      	mov	r3, ip
 80011ec:	08d2      	lsrs	r2, r2, #3
 80011ee:	4317      	orrs	r7, r2
 80011f0:	401e      	ands	r6, r3
 80011f2:	e539      	b.n	8000c68 <__aeabi_dsub+0x1f8>
 80011f4:	465b      	mov	r3, fp
 80011f6:	08d2      	lsrs	r2, r2, #3
 80011f8:	075f      	lsls	r7, r3, #29
 80011fa:	4317      	orrs	r7, r2
 80011fc:	08dd      	lsrs	r5, r3, #3
 80011fe:	e533      	b.n	8000c68 <__aeabi_dsub+0x1f8>
 8001200:	4a1e      	ldr	r2, [pc, #120]	@ (800127c <__aeabi_dsub+0x80c>)
 8001202:	08db      	lsrs	r3, r3, #3
 8001204:	4022      	ands	r2, r4
 8001206:	0757      	lsls	r7, r2, #29
 8001208:	0252      	lsls	r2, r2, #9
 800120a:	2501      	movs	r5, #1
 800120c:	431f      	orrs	r7, r3
 800120e:	0b14      	lsrs	r4, r2, #12
 8001210:	e5c2      	b.n	8000d98 <__aeabi_dsub+0x328>
 8001212:	000e      	movs	r6, r1
 8001214:	2001      	movs	r0, #1
 8001216:	e65f      	b.n	8000ed8 <__aeabi_dsub+0x468>
 8001218:	2b00      	cmp	r3, #0
 800121a:	d00d      	beq.n	8001238 <__aeabi_dsub+0x7c8>
 800121c:	464b      	mov	r3, r9
 800121e:	1b5b      	subs	r3, r3, r5
 8001220:	469c      	mov	ip, r3
 8001222:	2d00      	cmp	r5, #0
 8001224:	d100      	bne.n	8001228 <__aeabi_dsub+0x7b8>
 8001226:	e548      	b.n	8000cba <__aeabi_dsub+0x24a>
 8001228:	2701      	movs	r7, #1
 800122a:	2b38      	cmp	r3, #56	@ 0x38
 800122c:	dd00      	ble.n	8001230 <__aeabi_dsub+0x7c0>
 800122e:	e566      	b.n	8000cfe <__aeabi_dsub+0x28e>
 8001230:	2380      	movs	r3, #128	@ 0x80
 8001232:	041b      	lsls	r3, r3, #16
 8001234:	431c      	orrs	r4, r3
 8001236:	e550      	b.n	8000cda <__aeabi_dsub+0x26a>
 8001238:	1c6b      	adds	r3, r5, #1
 800123a:	4d11      	ldr	r5, [pc, #68]	@ (8001280 <__aeabi_dsub+0x810>)
 800123c:	422b      	tst	r3, r5
 800123e:	d000      	beq.n	8001242 <__aeabi_dsub+0x7d2>
 8001240:	e673      	b.n	8000f2a <__aeabi_dsub+0x4ba>
 8001242:	4659      	mov	r1, fp
 8001244:	0023      	movs	r3, r4
 8001246:	4311      	orrs	r1, r2
 8001248:	468a      	mov	sl, r1
 800124a:	4303      	orrs	r3, r0
 800124c:	e600      	b.n	8000e50 <__aeabi_dsub+0x3e0>
 800124e:	0767      	lsls	r7, r4, #29
 8001250:	08c0      	lsrs	r0, r0, #3
 8001252:	2300      	movs	r3, #0
 8001254:	4307      	orrs	r7, r0
 8001256:	08e5      	lsrs	r5, r4, #3
 8001258:	e662      	b.n	8000f20 <__aeabi_dsub+0x4b0>
 800125a:	0764      	lsls	r4, r4, #29
 800125c:	08ff      	lsrs	r7, r7, #3
 800125e:	4327      	orrs	r7, r4
 8001260:	0905      	lsrs	r5, r0, #4
 8001262:	e65d      	b.n	8000f20 <__aeabi_dsub+0x4b0>
 8001264:	08d2      	lsrs	r2, r2, #3
 8001266:	0749      	lsls	r1, r1, #29
 8001268:	4311      	orrs	r1, r2
 800126a:	000f      	movs	r7, r1
 800126c:	2302      	movs	r3, #2
 800126e:	092d      	lsrs	r5, r5, #4
 8001270:	e656      	b.n	8000f20 <__aeabi_dsub+0x4b0>
 8001272:	0007      	movs	r7, r0
 8001274:	e5a4      	b.n	8000dc0 <__aeabi_dsub+0x350>
 8001276:	0038      	movs	r0, r7
 8001278:	e48f      	b.n	8000b9a <__aeabi_dsub+0x12a>
 800127a:	46c0      	nop			@ (mov r8, r8)
 800127c:	ff7fffff 	.word	0xff7fffff
 8001280:	000007fe 	.word	0x000007fe

08001284 <__aeabi_d2iz>:
 8001284:	000b      	movs	r3, r1
 8001286:	0002      	movs	r2, r0
 8001288:	b570      	push	{r4, r5, r6, lr}
 800128a:	4d16      	ldr	r5, [pc, #88]	@ (80012e4 <__aeabi_d2iz+0x60>)
 800128c:	030c      	lsls	r4, r1, #12
 800128e:	b082      	sub	sp, #8
 8001290:	0049      	lsls	r1, r1, #1
 8001292:	2000      	movs	r0, #0
 8001294:	9200      	str	r2, [sp, #0]
 8001296:	9301      	str	r3, [sp, #4]
 8001298:	0b24      	lsrs	r4, r4, #12
 800129a:	0d49      	lsrs	r1, r1, #21
 800129c:	0fde      	lsrs	r6, r3, #31
 800129e:	42a9      	cmp	r1, r5
 80012a0:	dd04      	ble.n	80012ac <__aeabi_d2iz+0x28>
 80012a2:	4811      	ldr	r0, [pc, #68]	@ (80012e8 <__aeabi_d2iz+0x64>)
 80012a4:	4281      	cmp	r1, r0
 80012a6:	dd03      	ble.n	80012b0 <__aeabi_d2iz+0x2c>
 80012a8:	4b10      	ldr	r3, [pc, #64]	@ (80012ec <__aeabi_d2iz+0x68>)
 80012aa:	18f0      	adds	r0, r6, r3
 80012ac:	b002      	add	sp, #8
 80012ae:	bd70      	pop	{r4, r5, r6, pc}
 80012b0:	2080      	movs	r0, #128	@ 0x80
 80012b2:	0340      	lsls	r0, r0, #13
 80012b4:	4320      	orrs	r0, r4
 80012b6:	4c0e      	ldr	r4, [pc, #56]	@ (80012f0 <__aeabi_d2iz+0x6c>)
 80012b8:	1a64      	subs	r4, r4, r1
 80012ba:	2c1f      	cmp	r4, #31
 80012bc:	dd08      	ble.n	80012d0 <__aeabi_d2iz+0x4c>
 80012be:	4b0d      	ldr	r3, [pc, #52]	@ (80012f4 <__aeabi_d2iz+0x70>)
 80012c0:	1a5b      	subs	r3, r3, r1
 80012c2:	40d8      	lsrs	r0, r3
 80012c4:	0003      	movs	r3, r0
 80012c6:	4258      	negs	r0, r3
 80012c8:	2e00      	cmp	r6, #0
 80012ca:	d1ef      	bne.n	80012ac <__aeabi_d2iz+0x28>
 80012cc:	0018      	movs	r0, r3
 80012ce:	e7ed      	b.n	80012ac <__aeabi_d2iz+0x28>
 80012d0:	4b09      	ldr	r3, [pc, #36]	@ (80012f8 <__aeabi_d2iz+0x74>)
 80012d2:	9a00      	ldr	r2, [sp, #0]
 80012d4:	469c      	mov	ip, r3
 80012d6:	0003      	movs	r3, r0
 80012d8:	4461      	add	r1, ip
 80012da:	408b      	lsls	r3, r1
 80012dc:	40e2      	lsrs	r2, r4
 80012de:	4313      	orrs	r3, r2
 80012e0:	e7f1      	b.n	80012c6 <__aeabi_d2iz+0x42>
 80012e2:	46c0      	nop			@ (mov r8, r8)
 80012e4:	000003fe 	.word	0x000003fe
 80012e8:	0000041d 	.word	0x0000041d
 80012ec:	7fffffff 	.word	0x7fffffff
 80012f0:	00000433 	.word	0x00000433
 80012f4:	00000413 	.word	0x00000413
 80012f8:	fffffbed 	.word	0xfffffbed

080012fc <__aeabi_i2d>:
 80012fc:	b570      	push	{r4, r5, r6, lr}
 80012fe:	2800      	cmp	r0, #0
 8001300:	d016      	beq.n	8001330 <__aeabi_i2d+0x34>
 8001302:	17c3      	asrs	r3, r0, #31
 8001304:	18c5      	adds	r5, r0, r3
 8001306:	405d      	eors	r5, r3
 8001308:	0fc4      	lsrs	r4, r0, #31
 800130a:	0028      	movs	r0, r5
 800130c:	f000 f862 	bl	80013d4 <__clzsi2>
 8001310:	4b10      	ldr	r3, [pc, #64]	@ (8001354 <__aeabi_i2d+0x58>)
 8001312:	1a1b      	subs	r3, r3, r0
 8001314:	055b      	lsls	r3, r3, #21
 8001316:	0d5b      	lsrs	r3, r3, #21
 8001318:	280a      	cmp	r0, #10
 800131a:	dc14      	bgt.n	8001346 <__aeabi_i2d+0x4a>
 800131c:	0002      	movs	r2, r0
 800131e:	002e      	movs	r6, r5
 8001320:	3215      	adds	r2, #21
 8001322:	4096      	lsls	r6, r2
 8001324:	220b      	movs	r2, #11
 8001326:	1a12      	subs	r2, r2, r0
 8001328:	40d5      	lsrs	r5, r2
 800132a:	032d      	lsls	r5, r5, #12
 800132c:	0b2d      	lsrs	r5, r5, #12
 800132e:	e003      	b.n	8001338 <__aeabi_i2d+0x3c>
 8001330:	2400      	movs	r4, #0
 8001332:	2300      	movs	r3, #0
 8001334:	2500      	movs	r5, #0
 8001336:	2600      	movs	r6, #0
 8001338:	051b      	lsls	r3, r3, #20
 800133a:	432b      	orrs	r3, r5
 800133c:	07e4      	lsls	r4, r4, #31
 800133e:	4323      	orrs	r3, r4
 8001340:	0030      	movs	r0, r6
 8001342:	0019      	movs	r1, r3
 8001344:	bd70      	pop	{r4, r5, r6, pc}
 8001346:	380b      	subs	r0, #11
 8001348:	4085      	lsls	r5, r0
 800134a:	032d      	lsls	r5, r5, #12
 800134c:	2600      	movs	r6, #0
 800134e:	0b2d      	lsrs	r5, r5, #12
 8001350:	e7f2      	b.n	8001338 <__aeabi_i2d+0x3c>
 8001352:	46c0      	nop			@ (mov r8, r8)
 8001354:	0000041e 	.word	0x0000041e

08001358 <__aeabi_cdrcmple>:
 8001358:	4684      	mov	ip, r0
 800135a:	0010      	movs	r0, r2
 800135c:	4662      	mov	r2, ip
 800135e:	468c      	mov	ip, r1
 8001360:	0019      	movs	r1, r3
 8001362:	4663      	mov	r3, ip
 8001364:	e000      	b.n	8001368 <__aeabi_cdcmpeq>
 8001366:	46c0      	nop			@ (mov r8, r8)

08001368 <__aeabi_cdcmpeq>:
 8001368:	b51f      	push	{r0, r1, r2, r3, r4, lr}
 800136a:	f000 f905 	bl	8001578 <__ledf2>
 800136e:	2800      	cmp	r0, #0
 8001370:	d401      	bmi.n	8001376 <__aeabi_cdcmpeq+0xe>
 8001372:	2100      	movs	r1, #0
 8001374:	42c8      	cmn	r0, r1
 8001376:	bd1f      	pop	{r0, r1, r2, r3, r4, pc}

08001378 <__aeabi_dcmpeq>:
 8001378:	b510      	push	{r4, lr}
 800137a:	f000 f849 	bl	8001410 <__eqdf2>
 800137e:	4240      	negs	r0, r0
 8001380:	3001      	adds	r0, #1
 8001382:	bd10      	pop	{r4, pc}

08001384 <__aeabi_dcmplt>:
 8001384:	b510      	push	{r4, lr}
 8001386:	f000 f8f7 	bl	8001578 <__ledf2>
 800138a:	2800      	cmp	r0, #0
 800138c:	db01      	blt.n	8001392 <__aeabi_dcmplt+0xe>
 800138e:	2000      	movs	r0, #0
 8001390:	bd10      	pop	{r4, pc}
 8001392:	2001      	movs	r0, #1
 8001394:	bd10      	pop	{r4, pc}
 8001396:	46c0      	nop			@ (mov r8, r8)

08001398 <__aeabi_dcmple>:
 8001398:	b510      	push	{r4, lr}
 800139a:	f000 f8ed 	bl	8001578 <__ledf2>
 800139e:	2800      	cmp	r0, #0
 80013a0:	dd01      	ble.n	80013a6 <__aeabi_dcmple+0xe>
 80013a2:	2000      	movs	r0, #0
 80013a4:	bd10      	pop	{r4, pc}
 80013a6:	2001      	movs	r0, #1
 80013a8:	bd10      	pop	{r4, pc}
 80013aa:	46c0      	nop			@ (mov r8, r8)

080013ac <__aeabi_dcmpgt>:
 80013ac:	b510      	push	{r4, lr}
 80013ae:	f000 f873 	bl	8001498 <__gedf2>
 80013b2:	2800      	cmp	r0, #0
 80013b4:	dc01      	bgt.n	80013ba <__aeabi_dcmpgt+0xe>
 80013b6:	2000      	movs	r0, #0
 80013b8:	bd10      	pop	{r4, pc}
 80013ba:	2001      	movs	r0, #1
 80013bc:	bd10      	pop	{r4, pc}
 80013be:	46c0      	nop			@ (mov r8, r8)

080013c0 <__aeabi_dcmpge>:
 80013c0:	b510      	push	{r4, lr}
 80013c2:	f000 f869 	bl	8001498 <__gedf2>
 80013c6:	2800      	cmp	r0, #0
 80013c8:	da01      	bge.n	80013ce <__aeabi_dcmpge+0xe>
 80013ca:	2000      	movs	r0, #0
 80013cc:	bd10      	pop	{r4, pc}
 80013ce:	2001      	movs	r0, #1
 80013d0:	bd10      	pop	{r4, pc}
 80013d2:	46c0      	nop			@ (mov r8, r8)

080013d4 <__clzsi2>:
 80013d4:	211c      	movs	r1, #28
 80013d6:	2301      	movs	r3, #1
 80013d8:	041b      	lsls	r3, r3, #16
 80013da:	4298      	cmp	r0, r3
 80013dc:	d301      	bcc.n	80013e2 <__clzsi2+0xe>
 80013de:	0c00      	lsrs	r0, r0, #16
 80013e0:	3910      	subs	r1, #16
 80013e2:	0a1b      	lsrs	r3, r3, #8
 80013e4:	4298      	cmp	r0, r3
 80013e6:	d301      	bcc.n	80013ec <__clzsi2+0x18>
 80013e8:	0a00      	lsrs	r0, r0, #8
 80013ea:	3908      	subs	r1, #8
 80013ec:	091b      	lsrs	r3, r3, #4
 80013ee:	4298      	cmp	r0, r3
 80013f0:	d301      	bcc.n	80013f6 <__clzsi2+0x22>
 80013f2:	0900      	lsrs	r0, r0, #4
 80013f4:	3904      	subs	r1, #4
 80013f6:	a202      	add	r2, pc, #8	@ (adr r2, 8001400 <__clzsi2+0x2c>)
 80013f8:	5c10      	ldrb	r0, [r2, r0]
 80013fa:	1840      	adds	r0, r0, r1
 80013fc:	4770      	bx	lr
 80013fe:	46c0      	nop			@ (mov r8, r8)
 8001400:	02020304 	.word	0x02020304
 8001404:	01010101 	.word	0x01010101
	...

08001410 <__eqdf2>:
 8001410:	b5f0      	push	{r4, r5, r6, r7, lr}
 8001412:	4657      	mov	r7, sl
 8001414:	46de      	mov	lr, fp
 8001416:	464e      	mov	r6, r9
 8001418:	4645      	mov	r5, r8
 800141a:	b5e0      	push	{r5, r6, r7, lr}
 800141c:	000d      	movs	r5, r1
 800141e:	0004      	movs	r4, r0
 8001420:	0fe8      	lsrs	r0, r5, #31
 8001422:	4683      	mov	fp, r0
 8001424:	0309      	lsls	r1, r1, #12
 8001426:	0fd8      	lsrs	r0, r3, #31
 8001428:	0b09      	lsrs	r1, r1, #12
 800142a:	4682      	mov	sl, r0
 800142c:	4819      	ldr	r0, [pc, #100]	@ (8001494 <__eqdf2+0x84>)
 800142e:	468c      	mov	ip, r1
 8001430:	031f      	lsls	r7, r3, #12
 8001432:	0069      	lsls	r1, r5, #1
 8001434:	005e      	lsls	r6, r3, #1
 8001436:	0d49      	lsrs	r1, r1, #21
 8001438:	0b3f      	lsrs	r7, r7, #12
 800143a:	0d76      	lsrs	r6, r6, #21
 800143c:	4281      	cmp	r1, r0
 800143e:	d018      	beq.n	8001472 <__eqdf2+0x62>
 8001440:	4286      	cmp	r6, r0
 8001442:	d00f      	beq.n	8001464 <__eqdf2+0x54>
 8001444:	2001      	movs	r0, #1
 8001446:	42b1      	cmp	r1, r6
 8001448:	d10d      	bne.n	8001466 <__eqdf2+0x56>
 800144a:	45bc      	cmp	ip, r7
 800144c:	d10b      	bne.n	8001466 <__eqdf2+0x56>
 800144e:	4294      	cmp	r4, r2
 8001450:	d109      	bne.n	8001466 <__eqdf2+0x56>
 8001452:	45d3      	cmp	fp, sl
 8001454:	d01c      	beq.n	8001490 <__eqdf2+0x80>
 8001456:	2900      	cmp	r1, #0
 8001458:	d105      	bne.n	8001466 <__eqdf2+0x56>
 800145a:	4660      	mov	r0, ip
 800145c:	4320      	orrs	r0, r4
 800145e:	1e43      	subs	r3, r0, #1
 8001460:	4198      	sbcs	r0, r3
 8001462:	e000      	b.n	8001466 <__eqdf2+0x56>
 8001464:	2001      	movs	r0, #1
 8001466:	bcf0      	pop	{r4, r5, r6, r7}
 8001468:	46bb      	mov	fp, r7
 800146a:	46b2      	mov	sl, r6
 800146c:	46a9      	mov	r9, r5
 800146e:	46a0      	mov	r8, r4
 8001470:	bdf0      	pop	{r4, r5, r6, r7, pc}
 8001472:	2001      	movs	r0, #1
 8001474:	428e      	cmp	r6, r1
 8001476:	d1f6      	bne.n	8001466 <__eqdf2+0x56>
 8001478:	4661      	mov	r1, ip
 800147a:	4339      	orrs	r1, r7
 800147c:	000f      	movs	r7, r1
 800147e:	4317      	orrs	r7, r2
 8001480:	4327      	orrs	r7, r4
 8001482:	d1f0      	bne.n	8001466 <__eqdf2+0x56>
 8001484:	465b      	mov	r3, fp
 8001486:	4652      	mov	r2, sl
 8001488:	1a98      	subs	r0, r3, r2
 800148a:	1e43      	subs	r3, r0, #1
 800148c:	4198      	sbcs	r0, r3
 800148e:	e7ea      	b.n	8001466 <__eqdf2+0x56>
 8001490:	2000      	movs	r0, #0
 8001492:	e7e8      	b.n	8001466 <__eqdf2+0x56>
 8001494:	000007ff 	.word	0x000007ff

08001498 <__gedf2>:
 8001498:	b5f0      	push	{r4, r5, r6, r7, lr}
 800149a:	4657      	mov	r7, sl
 800149c:	464e      	mov	r6, r9
 800149e:	4645      	mov	r5, r8
 80014a0:	46de      	mov	lr, fp
 80014a2:	b5e0      	push	{r5, r6, r7, lr}
 80014a4:	000d      	movs	r5, r1
 80014a6:	030e      	lsls	r6, r1, #12
 80014a8:	0049      	lsls	r1, r1, #1
 80014aa:	0d49      	lsrs	r1, r1, #21
 80014ac:	468a      	mov	sl, r1
 80014ae:	0fdf      	lsrs	r7, r3, #31
 80014b0:	0fe9      	lsrs	r1, r5, #31
 80014b2:	46bc      	mov	ip, r7
 80014b4:	b083      	sub	sp, #12
 80014b6:	4f2f      	ldr	r7, [pc, #188]	@ (8001574 <__gedf2+0xdc>)
 80014b8:	0004      	movs	r4, r0
 80014ba:	4680      	mov	r8, r0
 80014bc:	9101      	str	r1, [sp, #4]
 80014be:	0058      	lsls	r0, r3, #1
 80014c0:	0319      	lsls	r1, r3, #12
 80014c2:	4691      	mov	r9, r2
 80014c4:	0b36      	lsrs	r6, r6, #12
 80014c6:	0b09      	lsrs	r1, r1, #12
 80014c8:	0d40      	lsrs	r0, r0, #21
 80014ca:	45ba      	cmp	sl, r7
 80014cc:	d01d      	beq.n	800150a <__gedf2+0x72>
 80014ce:	42b8      	cmp	r0, r7
 80014d0:	d00d      	beq.n	80014ee <__gedf2+0x56>
 80014d2:	4657      	mov	r7, sl
 80014d4:	2f00      	cmp	r7, #0
 80014d6:	d12a      	bne.n	800152e <__gedf2+0x96>
 80014d8:	4334      	orrs	r4, r6
 80014da:	2800      	cmp	r0, #0
 80014dc:	d124      	bne.n	8001528 <__gedf2+0x90>
 80014de:	430a      	orrs	r2, r1
 80014e0:	d036      	beq.n	8001550 <__gedf2+0xb8>
 80014e2:	2c00      	cmp	r4, #0
 80014e4:	d141      	bne.n	800156a <__gedf2+0xd2>
 80014e6:	4663      	mov	r3, ip
 80014e8:	0058      	lsls	r0, r3, #1
 80014ea:	3801      	subs	r0, #1
 80014ec:	e015      	b.n	800151a <__gedf2+0x82>
 80014ee:	4311      	orrs	r1, r2
 80014f0:	d138      	bne.n	8001564 <__gedf2+0xcc>
 80014f2:	4653      	mov	r3, sl
 80014f4:	2b00      	cmp	r3, #0
 80014f6:	d101      	bne.n	80014fc <__gedf2+0x64>
 80014f8:	4326      	orrs	r6, r4
 80014fa:	d0f4      	beq.n	80014e6 <__gedf2+0x4e>
 80014fc:	9b01      	ldr	r3, [sp, #4]
 80014fe:	4563      	cmp	r3, ip
 8001500:	d107      	bne.n	8001512 <__gedf2+0x7a>
 8001502:	9b01      	ldr	r3, [sp, #4]
 8001504:	0058      	lsls	r0, r3, #1
 8001506:	3801      	subs	r0, #1
 8001508:	e007      	b.n	800151a <__gedf2+0x82>
 800150a:	4326      	orrs	r6, r4
 800150c:	d12a      	bne.n	8001564 <__gedf2+0xcc>
 800150e:	4550      	cmp	r0, sl
 8001510:	d021      	beq.n	8001556 <__gedf2+0xbe>
 8001512:	2001      	movs	r0, #1
 8001514:	9b01      	ldr	r3, [sp, #4]
 8001516:	425f      	negs	r7, r3
 8001518:	4338      	orrs	r0, r7
 800151a:	b003      	add	sp, #12
 800151c:	bcf0      	pop	{r4, r5, r6, r7}
 800151e:	46bb      	mov	fp, r7
 8001520:	46b2      	mov	sl, r6
 8001522:	46a9      	mov	r9, r5
 8001524:	46a0      	mov	r8, r4
 8001526:	bdf0      	pop	{r4, r5, r6, r7, pc}
 8001528:	2c00      	cmp	r4, #0
 800152a:	d0dc      	beq.n	80014e6 <__gedf2+0x4e>
 800152c:	e7e6      	b.n	80014fc <__gedf2+0x64>
 800152e:	2800      	cmp	r0, #0
 8001530:	d0ef      	beq.n	8001512 <__gedf2+0x7a>
 8001532:	9b01      	ldr	r3, [sp, #4]
 8001534:	4563      	cmp	r3, ip
 8001536:	d1ec      	bne.n	8001512 <__gedf2+0x7a>
 8001538:	4582      	cmp	sl, r0
 800153a:	dcea      	bgt.n	8001512 <__gedf2+0x7a>
 800153c:	dbe1      	blt.n	8001502 <__gedf2+0x6a>
 800153e:	428e      	cmp	r6, r1
 8001540:	d8e7      	bhi.n	8001512 <__gedf2+0x7a>
 8001542:	d1de      	bne.n	8001502 <__gedf2+0x6a>
 8001544:	45c8      	cmp	r8, r9
 8001546:	d8e4      	bhi.n	8001512 <__gedf2+0x7a>
 8001548:	2000      	movs	r0, #0
 800154a:	45c8      	cmp	r8, r9
 800154c:	d2e5      	bcs.n	800151a <__gedf2+0x82>
 800154e:	e7d8      	b.n	8001502 <__gedf2+0x6a>
 8001550:	2c00      	cmp	r4, #0
 8001552:	d0e2      	beq.n	800151a <__gedf2+0x82>
 8001554:	e7dd      	b.n	8001512 <__gedf2+0x7a>
 8001556:	4311      	orrs	r1, r2
 8001558:	d104      	bne.n	8001564 <__gedf2+0xcc>
 800155a:	9b01      	ldr	r3, [sp, #4]
 800155c:	4563      	cmp	r3, ip
 800155e:	d1d8      	bne.n	8001512 <__gedf2+0x7a>
 8001560:	2000      	movs	r0, #0
 8001562:	e7da      	b.n	800151a <__gedf2+0x82>
 8001564:	2002      	movs	r0, #2
 8001566:	4240      	negs	r0, r0
 8001568:	e7d7      	b.n	800151a <__gedf2+0x82>
 800156a:	9b01      	ldr	r3, [sp, #4]
 800156c:	4563      	cmp	r3, ip
 800156e:	d0e6      	beq.n	800153e <__gedf2+0xa6>
 8001570:	e7cf      	b.n	8001512 <__gedf2+0x7a>
 8001572:	46c0      	nop			@ (mov r8, r8)
 8001574:	000007ff 	.word	0x000007ff

08001578 <__ledf2>:
 8001578:	b5f0      	push	{r4, r5, r6, r7, lr}
 800157a:	4657      	mov	r7, sl
 800157c:	464e      	mov	r6, r9
 800157e:	4645      	mov	r5, r8
 8001580:	46de      	mov	lr, fp
 8001582:	b5e0      	push	{r5, r6, r7, lr}
 8001584:	000d      	movs	r5, r1
 8001586:	030e      	lsls	r6, r1, #12
 8001588:	0049      	lsls	r1, r1, #1
 800158a:	0d49      	lsrs	r1, r1, #21
 800158c:	468a      	mov	sl, r1
 800158e:	0fdf      	lsrs	r7, r3, #31
 8001590:	0fe9      	lsrs	r1, r5, #31
 8001592:	46bc      	mov	ip, r7
 8001594:	b083      	sub	sp, #12
 8001596:	4f2e      	ldr	r7, [pc, #184]	@ (8001650 <__ledf2+0xd8>)
 8001598:	0004      	movs	r4, r0
 800159a:	4680      	mov	r8, r0
 800159c:	9101      	str	r1, [sp, #4]
 800159e:	0058      	lsls	r0, r3, #1
 80015a0:	0319      	lsls	r1, r3, #12
 80015a2:	4691      	mov	r9, r2
 80015a4:	0b36      	lsrs	r6, r6, #12
 80015a6:	0b09      	lsrs	r1, r1, #12
 80015a8:	0d40      	lsrs	r0, r0, #21
 80015aa:	45ba      	cmp	sl, r7
 80015ac:	d01e      	beq.n	80015ec <__ledf2+0x74>
 80015ae:	42b8      	cmp	r0, r7
 80015b0:	d00d      	beq.n	80015ce <__ledf2+0x56>
 80015b2:	4657      	mov	r7, sl
 80015b4:	2f00      	cmp	r7, #0
 80015b6:	d127      	bne.n	8001608 <__ledf2+0x90>
 80015b8:	4334      	orrs	r4, r6
 80015ba:	2800      	cmp	r0, #0
 80015bc:	d133      	bne.n	8001626 <__ledf2+0xae>
 80015be:	430a      	orrs	r2, r1
 80015c0:	d034      	beq.n	800162c <__ledf2+0xb4>
 80015c2:	2c00      	cmp	r4, #0
 80015c4:	d140      	bne.n	8001648 <__ledf2+0xd0>
 80015c6:	4663      	mov	r3, ip
 80015c8:	0058      	lsls	r0, r3, #1
 80015ca:	3801      	subs	r0, #1
 80015cc:	e015      	b.n	80015fa <__ledf2+0x82>
 80015ce:	4311      	orrs	r1, r2
 80015d0:	d112      	bne.n	80015f8 <__ledf2+0x80>
 80015d2:	4653      	mov	r3, sl
 80015d4:	2b00      	cmp	r3, #0
 80015d6:	d101      	bne.n	80015dc <__ledf2+0x64>
 80015d8:	4326      	orrs	r6, r4
 80015da:	d0f4      	beq.n	80015c6 <__ledf2+0x4e>
 80015dc:	9b01      	ldr	r3, [sp, #4]
 80015de:	4563      	cmp	r3, ip
 80015e0:	d01d      	beq.n	800161e <__ledf2+0xa6>
 80015e2:	2001      	movs	r0, #1
 80015e4:	9b01      	ldr	r3, [sp, #4]
 80015e6:	425f      	negs	r7, r3
 80015e8:	4338      	orrs	r0, r7
 80015ea:	e006      	b.n	80015fa <__ledf2+0x82>
 80015ec:	4326      	orrs	r6, r4
 80015ee:	d103      	bne.n	80015f8 <__ledf2+0x80>
 80015f0:	4550      	cmp	r0, sl
 80015f2:	d1f6      	bne.n	80015e2 <__ledf2+0x6a>
 80015f4:	4311      	orrs	r1, r2
 80015f6:	d01c      	beq.n	8001632 <__ledf2+0xba>
 80015f8:	2002      	movs	r0, #2
 80015fa:	b003      	add	sp, #12
 80015fc:	bcf0      	pop	{r4, r5, r6, r7}
 80015fe:	46bb      	mov	fp, r7
 8001600:	46b2      	mov	sl, r6
 8001602:	46a9      	mov	r9, r5
 8001604:	46a0      	mov	r8, r4
 8001606:	bdf0      	pop	{r4, r5, r6, r7, pc}
 8001608:	2800      	cmp	r0, #0
 800160a:	d0ea      	beq.n	80015e2 <__ledf2+0x6a>
 800160c:	9b01      	ldr	r3, [sp, #4]
 800160e:	4563      	cmp	r3, ip
 8001610:	d1e7      	bne.n	80015e2 <__ledf2+0x6a>
 8001612:	4582      	cmp	sl, r0
 8001614:	dce5      	bgt.n	80015e2 <__ledf2+0x6a>
 8001616:	db02      	blt.n	800161e <__ledf2+0xa6>
 8001618:	428e      	cmp	r6, r1
 800161a:	d8e2      	bhi.n	80015e2 <__ledf2+0x6a>
 800161c:	d00e      	beq.n	800163c <__ledf2+0xc4>
 800161e:	9b01      	ldr	r3, [sp, #4]
 8001620:	0058      	lsls	r0, r3, #1
 8001622:	3801      	subs	r0, #1
 8001624:	e7e9      	b.n	80015fa <__ledf2+0x82>
 8001626:	2c00      	cmp	r4, #0
 8001628:	d0cd      	beq.n	80015c6 <__ledf2+0x4e>
 800162a:	e7d7      	b.n	80015dc <__ledf2+0x64>
 800162c:	2c00      	cmp	r4, #0
 800162e:	d0e4      	beq.n	80015fa <__ledf2+0x82>
 8001630:	e7d7      	b.n	80015e2 <__ledf2+0x6a>
 8001632:	9b01      	ldr	r3, [sp, #4]
 8001634:	2000      	movs	r0, #0
 8001636:	4563      	cmp	r3, ip
 8001638:	d0df      	beq.n	80015fa <__ledf2+0x82>
 800163a:	e7d2      	b.n	80015e2 <__ledf2+0x6a>
 800163c:	45c8      	cmp	r8, r9
 800163e:	d8d0      	bhi.n	80015e2 <__ledf2+0x6a>
 8001640:	2000      	movs	r0, #0
 8001642:	45c8      	cmp	r8, r9
 8001644:	d2d9      	bcs.n	80015fa <__ledf2+0x82>
 8001646:	e7ea      	b.n	800161e <__ledf2+0xa6>
 8001648:	9b01      	ldr	r3, [sp, #4]
 800164a:	4563      	cmp	r3, ip
 800164c:	d0e4      	beq.n	8001618 <__ledf2+0xa0>
 800164e:	e7c8      	b.n	80015e2 <__ledf2+0x6a>
 8001650:	000007ff 	.word	0x000007ff

08001654 <SystemClock_Config>:
 8001654:	b530      	push	{r4, r5, lr}
 8001656:	2410      	movs	r4, #16
 8001658:	b099      	sub	sp, #100	@ 0x64
 800165a:	2220      	movs	r2, #32
 800165c:	2100      	movs	r1, #0
 800165e:	a80c      	add	r0, sp, #48	@ 0x30
 8001660:	f001 fb34 	bl	8002ccc <memset>
 8001664:	0022      	movs	r2, r4
 8001666:	2100      	movs	r1, #0
 8001668:	4668      	mov	r0, sp
 800166a:	f001 fb2f 	bl	8002ccc <memset>
 800166e:	221c      	movs	r2, #28
 8001670:	2100      	movs	r1, #0
 8001672:	a804      	add	r0, sp, #16
 8001674:	f001 fb2a 	bl	8002ccc <memset>
 8001678:	2312      	movs	r3, #18
 800167a:	930b      	str	r3, [sp, #44]	@ 0x2c
 800167c:	2380      	movs	r3, #128	@ 0x80
 800167e:	021b      	lsls	r3, r3, #8
 8001680:	9315      	str	r3, [sp, #84]	@ 0x54
 8001682:	23a0      	movs	r3, #160	@ 0xa0
 8001684:	2501      	movs	r5, #1
 8001686:	940f      	str	r4, [sp, #60]	@ 0x3c
 8001688:	9411      	str	r4, [sp, #68]	@ 0x44
 800168a:	039b      	lsls	r3, r3, #14
 800168c:	3c0e      	subs	r4, #14
 800168e:	a80b      	add	r0, sp, #44	@ 0x2c
 8001690:	950e      	str	r5, [sp, #56]	@ 0x38
 8001692:	9510      	str	r5, [sp, #64]	@ 0x40
 8001694:	9414      	str	r4, [sp, #80]	@ 0x50
 8001696:	9316      	str	r3, [sp, #88]	@ 0x58
 8001698:	9517      	str	r5, [sp, #92]	@ 0x5c
 800169a:	f000 fd05 	bl	80020a8 <HAL_RCC_OscConfig>
 800169e:	2800      	cmp	r0, #0
 80016a0:	d001      	beq.n	80016a6 <SystemClock_Config+0x52>
 80016a2:	b672      	cpsid	i
 80016a4:	e7fe      	b.n	80016a4 <SystemClock_Config+0x50>
 80016a6:	2307      	movs	r3, #7
 80016a8:	9002      	str	r0, [sp, #8]
 80016aa:	9003      	str	r0, [sp, #12]
 80016ac:	0029      	movs	r1, r5
 80016ae:	4668      	mov	r0, sp
 80016b0:	9300      	str	r3, [sp, #0]
 80016b2:	9401      	str	r4, [sp, #4]
 80016b4:	f000 ff7e 	bl	80025b4 <HAL_RCC_ClockConfig>
 80016b8:	2800      	cmp	r0, #0
 80016ba:	d001      	beq.n	80016c0 <SystemClock_Config+0x6c>
 80016bc:	b672      	cpsid	i
 80016be:	e7fe      	b.n	80016be <SystemClock_Config+0x6a>
 80016c0:	9007      	str	r0, [sp, #28]
 80016c2:	a804      	add	r0, sp, #16
 80016c4:	9404      	str	r4, [sp, #16]
 80016c6:	f001 f80f 	bl	80026e8 <HAL_RCCEx_PeriphCLKConfig>
 80016ca:	2800      	cmp	r0, #0
 80016cc:	d001      	beq.n	80016d2 <SystemClock_Config+0x7e>
 80016ce:	b672      	cpsid	i
 80016d0:	e7fe      	b.n	80016d0 <SystemClock_Config+0x7c>
 80016d2:	b019      	add	sp, #100	@ 0x64
 80016d4:	bd30      	pop	{r4, r5, pc}
	...

080016d8 <main>:
 80016d8:	b5f0      	push	{r4, r5, r6, r7, lr}
 80016da:	b089      	sub	sp, #36	@ 0x24
 80016dc:	f000 f9a2 	bl	8001a24 <HAL_Init>
 80016e0:	f7ff ffb8 	bl	8001654 <SystemClock_Config>
 80016e4:	2214      	movs	r2, #20
 80016e6:	2100      	movs	r1, #0
 80016e8:	a803      	add	r0, sp, #12
 80016ea:	f001 faef 	bl	8002ccc <memset>
 80016ee:	2180      	movs	r1, #128	@ 0x80
 80016f0:	4b59      	ldr	r3, [pc, #356]	@ (8001858 <main+0x180>)
 80016f2:	0309      	lsls	r1, r1, #12
 80016f4:	695a      	ldr	r2, [r3, #20]
 80016f6:	2090      	movs	r0, #144	@ 0x90
 80016f8:	430a      	orrs	r2, r1
 80016fa:	615a      	str	r2, [r3, #20]
 80016fc:	695a      	ldr	r2, [r3, #20]
 80016fe:	05c0      	lsls	r0, r0, #23
 8001700:	400a      	ands	r2, r1
 8001702:	2180      	movs	r1, #128	@ 0x80
 8001704:	9200      	str	r2, [sp, #0]
 8001706:	9a00      	ldr	r2, [sp, #0]
 8001708:	695a      	ldr	r2, [r3, #20]
 800170a:	03c9      	lsls	r1, r1, #15
 800170c:	430a      	orrs	r2, r1
 800170e:	615a      	str	r2, [r3, #20]
 8001710:	695a      	ldr	r2, [r3, #20]
 8001712:	2400      	movs	r4, #0
 8001714:	400a      	ands	r2, r1
 8001716:	2180      	movs	r1, #128	@ 0x80
 8001718:	9201      	str	r2, [sp, #4]
 800171a:	9a01      	ldr	r2, [sp, #4]
 800171c:	695a      	ldr	r2, [r3, #20]
 800171e:	0289      	lsls	r1, r1, #10
 8001720:	430a      	orrs	r2, r1
 8001722:	615a      	str	r2, [r3, #20]
 8001724:	695b      	ldr	r3, [r3, #20]
 8001726:	2200      	movs	r2, #0
 8001728:	400b      	ands	r3, r1
 800172a:	9302      	str	r3, [sp, #8]
 800172c:	2130      	movs	r1, #48	@ 0x30
 800172e:	9b02      	ldr	r3, [sp, #8]
 8001730:	f000 fcb4 	bl	800209c <HAL_GPIO_WritePin>
 8001734:	2380      	movs	r3, #128	@ 0x80
 8001736:	019b      	lsls	r3, r3, #6
 8001738:	9303      	str	r3, [sp, #12]
 800173a:	2384      	movs	r3, #132	@ 0x84
 800173c:	4847      	ldr	r0, [pc, #284]	@ (800185c <main+0x184>)
 800173e:	039b      	lsls	r3, r3, #14
 8001740:	a903      	add	r1, sp, #12
 8001742:	9304      	str	r3, [sp, #16]
 8001744:	9405      	str	r4, [sp, #20]
 8001746:	f000 fbeb 	bl	8001f20 <HAL_GPIO_Init>
 800174a:	2090      	movs	r0, #144	@ 0x90
 800174c:	2330      	movs	r3, #48	@ 0x30
 800174e:	2501      	movs	r5, #1
 8001750:	a903      	add	r1, sp, #12
 8001752:	05c0      	lsls	r0, r0, #23
 8001754:	9303      	str	r3, [sp, #12]
 8001756:	9504      	str	r5, [sp, #16]
 8001758:	9405      	str	r4, [sp, #20]
 800175a:	9406      	str	r4, [sp, #24]
 800175c:	f000 fbe0 	bl	8001f20 <HAL_GPIO_Init>
 8001760:	483f      	ldr	r0, [pc, #252]	@ (8001860 <main+0x188>)
 8001762:	4b40      	ldr	r3, [pc, #256]	@ (8001864 <main+0x18c>)
 8001764:	260c      	movs	r6, #12
 8001766:	6003      	str	r3, [r0, #0]
 8001768:	23e1      	movs	r3, #225	@ 0xe1
 800176a:	025b      	lsls	r3, r3, #9
 800176c:	6043      	str	r3, [r0, #4]
 800176e:	6084      	str	r4, [r0, #8]
 8001770:	60c4      	str	r4, [r0, #12]
 8001772:	6104      	str	r4, [r0, #16]
 8001774:	6146      	str	r6, [r0, #20]
 8001776:	6184      	str	r4, [r0, #24]
 8001778:	61c4      	str	r4, [r0, #28]
 800177a:	6204      	str	r4, [r0, #32]
 800177c:	6244      	str	r4, [r0, #36]	@ 0x24
 800177e:	f001 fa73 	bl	8002c68 <HAL_UART_Init>
 8001782:	0007      	movs	r7, r0
 8001784:	42a0      	cmp	r0, r4
 8001786:	d001      	beq.n	800178c <main+0xb4>
 8001788:	b672      	cpsid	i
 800178a:	e7fe      	b.n	800178a <main+0xb2>
 800178c:	0001      	movs	r1, r0
 800178e:	0032      	movs	r2, r6
 8001790:	a803      	add	r0, sp, #12
 8001792:	f001 fa9b 	bl	8002ccc <memset>
 8001796:	4c34      	ldr	r4, [pc, #208]	@ (8001868 <main+0x190>)
 8001798:	4b34      	ldr	r3, [pc, #208]	@ (800186c <main+0x194>)
 800179a:	0020      	movs	r0, r4
 800179c:	6023      	str	r3, [r4, #0]
 800179e:	2304      	movs	r3, #4
 80017a0:	6163      	str	r3, [r4, #20]
 80017a2:	23c2      	movs	r3, #194	@ 0xc2
 80017a4:	33ff      	adds	r3, #255	@ 0xff
 80017a6:	61e3      	str	r3, [r4, #28]
 80017a8:	1d63      	adds	r3, r4, #5
 80017aa:	6067      	str	r7, [r4, #4]
 80017ac:	60a7      	str	r7, [r4, #8]
 80017ae:	60e7      	str	r7, [r4, #12]
 80017b0:	6125      	str	r5, [r4, #16]
 80017b2:	61a7      	str	r7, [r4, #24]
 80017b4:	6227      	str	r7, [r4, #32]
 80017b6:	77df      	strb	r7, [r3, #31]
 80017b8:	62a5      	str	r5, [r4, #40]	@ 0x28
 80017ba:	f000 f9b7 	bl	8001b2c <HAL_ADC_Init>
 80017be:	2800      	cmp	r0, #0
 80017c0:	d001      	beq.n	80017c6 <main+0xee>
 80017c2:	b672      	cpsid	i
 80017c4:	e7fe      	b.n	80017c4 <main+0xec>
 80017c6:	2380      	movs	r3, #128	@ 0x80
 80017c8:	015b      	lsls	r3, r3, #5
 80017ca:	9304      	str	r3, [sp, #16]
 80017cc:	2380      	movs	r3, #128	@ 0x80
 80017ce:	9003      	str	r0, [sp, #12]
 80017d0:	055b      	lsls	r3, r3, #21
 80017d2:	0020      	movs	r0, r4
 80017d4:	a903      	add	r1, sp, #12
 80017d6:	9305      	str	r3, [sp, #20]
 80017d8:	f000 fade 	bl	8001d98 <HAL_ADC_ConfigChannel>
 80017dc:	2800      	cmp	r0, #0
 80017de:	d001      	beq.n	80017e4 <main+0x10c>
 80017e0:	b672      	cpsid	i
 80017e2:	e7fe      	b.n	80017e2 <main+0x10a>
 80017e4:	0020      	movs	r0, r4
 80017e6:	2590      	movs	r5, #144	@ 0x90
 80017e8:	f000 fa42 	bl	8001c70 <HAL_ADC_Start>
 80017ec:	05ed      	lsls	r5, r5, #23
 80017ee:	2114      	movs	r1, #20
 80017f0:	0020      	movs	r0, r4
 80017f2:	f000 fa69 	bl	8001cc8 <HAL_ADC_PollForConversion>
 80017f6:	0020      	movs	r0, r4
 80017f8:	f000 faca 	bl	8001d90 <HAL_ADC_GetValue>
 80017fc:	4b1c      	ldr	r3, [pc, #112]	@ (8001870 <main+0x198>)
 80017fe:	491d      	ldr	r1, [pc, #116]	@ (8001874 <main+0x19c>)
 8001800:	8018      	strh	r0, [r3, #0]
 8001802:	b283      	uxth	r3, r0
 8001804:	481c      	ldr	r0, [pc, #112]	@ (8001878 <main+0x1a0>)
 8001806:	4358      	muls	r0, r3
 8001808:	f7fe fd10 	bl	800022c <__divsi3>
 800180c:	4b1b      	ldr	r3, [pc, #108]	@ (800187c <main+0x1a4>)
 800180e:	3001      	adds	r0, #1
 8001810:	b280      	uxth	r0, r0
 8001812:	8018      	strh	r0, [r3, #0]
 8001814:	f7ff fd72 	bl	80012fc <__aeabi_i2d>
 8001818:	0002      	movs	r2, r0
 800181a:	000b      	movs	r3, r1
 800181c:	2000      	movs	r0, #0
 800181e:	4918      	ldr	r1, [pc, #96]	@ (8001880 <main+0x1a8>)
 8001820:	f7fe fe0e 	bl	8000440 <__aeabi_ddiv>
 8001824:	f7fe fdee 	bl	8000404 <__aeabi_d2uiz>
 8001828:	4b16      	ldr	r3, [pc, #88]	@ (8001884 <main+0x1ac>)
 800182a:	4e17      	ldr	r6, [pc, #92]	@ (8001888 <main+0x1b0>)
 800182c:	b280      	uxth	r0, r0
 800182e:	8018      	strh	r0, [r3, #0]
 8001830:	0840      	lsrs	r0, r0, #1
 8001832:	8030      	strh	r0, [r6, #0]
 8001834:	3814      	subs	r0, #20
 8001836:	f000 f917 	bl	8001a68 <HAL_Delay>
 800183a:	2201      	movs	r2, #1
 800183c:	2110      	movs	r1, #16
 800183e:	0028      	movs	r0, r5
 8001840:	f000 fc2c 	bl	800209c <HAL_GPIO_WritePin>
 8001844:	8830      	ldrh	r0, [r6, #0]
 8001846:	f000 f90f 	bl	8001a68 <HAL_Delay>
 800184a:	2200      	movs	r2, #0
 800184c:	2110      	movs	r1, #16
 800184e:	0028      	movs	r0, r5
 8001850:	f000 fc24 	bl	800209c <HAL_GPIO_WritePin>
 8001854:	e7cb      	b.n	80017ee <main+0x116>
 8001856:	46c0      	nop			@ (mov r8, r8)
 8001858:	40021000 	.word	0x40021000
 800185c:	48000800 	.word	0x48000800
 8001860:	20000034 	.word	0x20000034
 8001864:	40004400 	.word	0x40004400
 8001868:	200000bc 	.word	0x200000bc
 800186c:	40012400 	.word	0x40012400
 8001870:	20000030 	.word	0x20000030
 8001874:	00000fff 	.word	0x00000fff
 8001878:	000003e7 	.word	0x000003e7
 800187c:	20000000 	.word	0x20000000
 8001880:	408f4000 	.word	0x408f4000
 8001884:	2000002e 	.word	0x2000002e
 8001888:	2000002c 	.word	0x2000002c

0800188c <HAL_MspInit>:
 800188c:	2101      	movs	r1, #1
 800188e:	4b0a      	ldr	r3, [pc, #40]	@ (80018b8 <HAL_MspInit+0x2c>)
 8001890:	b082      	sub	sp, #8
 8001892:	699a      	ldr	r2, [r3, #24]
 8001894:	430a      	orrs	r2, r1
 8001896:	619a      	str	r2, [r3, #24]
 8001898:	699a      	ldr	r2, [r3, #24]
 800189a:	400a      	ands	r2, r1
 800189c:	2180      	movs	r1, #128	@ 0x80
 800189e:	9200      	str	r2, [sp, #0]
 80018a0:	9a00      	ldr	r2, [sp, #0]
 80018a2:	69da      	ldr	r2, [r3, #28]
 80018a4:	0549      	lsls	r1, r1, #21
 80018a6:	430a      	orrs	r2, r1
 80018a8:	61da      	str	r2, [r3, #28]
 80018aa:	69db      	ldr	r3, [r3, #28]
 80018ac:	400b      	ands	r3, r1
 80018ae:	9301      	str	r3, [sp, #4]
 80018b0:	9b01      	ldr	r3, [sp, #4]
 80018b2:	b002      	add	sp, #8
 80018b4:	4770      	bx	lr
 80018b6:	46c0      	nop			@ (mov r8, r8)
 80018b8:	40021000 	.word	0x40021000

080018bc <HAL_ADC_MspInit>:
 80018bc:	b510      	push	{r4, lr}
 80018be:	0004      	movs	r4, r0
 80018c0:	b088      	sub	sp, #32
 80018c2:	2214      	movs	r2, #20
 80018c4:	2100      	movs	r1, #0
 80018c6:	a803      	add	r0, sp, #12
 80018c8:	f001 fa00 	bl	8002ccc <memset>
 80018cc:	4b10      	ldr	r3, [pc, #64]	@ (8001910 <HAL_ADC_MspInit+0x54>)
 80018ce:	6822      	ldr	r2, [r4, #0]
 80018d0:	429a      	cmp	r2, r3
 80018d2:	d11b      	bne.n	800190c <HAL_ADC_MspInit+0x50>
 80018d4:	2180      	movs	r1, #128	@ 0x80
 80018d6:	4b0f      	ldr	r3, [pc, #60]	@ (8001914 <HAL_ADC_MspInit+0x58>)
 80018d8:	0089      	lsls	r1, r1, #2
 80018da:	699a      	ldr	r2, [r3, #24]
 80018dc:	2090      	movs	r0, #144	@ 0x90
 80018de:	430a      	orrs	r2, r1
 80018e0:	619a      	str	r2, [r3, #24]
 80018e2:	699a      	ldr	r2, [r3, #24]
 80018e4:	05c0      	lsls	r0, r0, #23
 80018e6:	400a      	ands	r2, r1
 80018e8:	2180      	movs	r1, #128	@ 0x80
 80018ea:	9201      	str	r2, [sp, #4]
 80018ec:	9a01      	ldr	r2, [sp, #4]
 80018ee:	695a      	ldr	r2, [r3, #20]
 80018f0:	0289      	lsls	r1, r1, #10
 80018f2:	430a      	orrs	r2, r1
 80018f4:	615a      	str	r2, [r3, #20]
 80018f6:	695b      	ldr	r3, [r3, #20]
 80018f8:	400b      	ands	r3, r1
 80018fa:	9302      	str	r3, [sp, #8]
 80018fc:	9b02      	ldr	r3, [sp, #8]
 80018fe:	2301      	movs	r3, #1
 8001900:	a903      	add	r1, sp, #12
 8001902:	9303      	str	r3, [sp, #12]
 8001904:	3302      	adds	r3, #2
 8001906:	9304      	str	r3, [sp, #16]
 8001908:	f000 fb0a 	bl	8001f20 <HAL_GPIO_Init>
 800190c:	b008      	add	sp, #32
 800190e:	bd10      	pop	{r4, pc}
 8001910:	40012400 	.word	0x40012400
 8001914:	40021000 	.word	0x40021000

08001918 <HAL_UART_MspInit>:
 8001918:	b510      	push	{r4, lr}
 800191a:	0004      	movs	r4, r0
 800191c:	b088      	sub	sp, #32
 800191e:	2214      	movs	r2, #20
 8001920:	2100      	movs	r1, #0
 8001922:	a803      	add	r0, sp, #12
 8001924:	f001 f9d2 	bl	8002ccc <memset>
 8001928:	4b10      	ldr	r3, [pc, #64]	@ (800196c <HAL_UART_MspInit+0x54>)
 800192a:	6822      	ldr	r2, [r4, #0]
 800192c:	429a      	cmp	r2, r3
 800192e:	d11b      	bne.n	8001968 <HAL_UART_MspInit+0x50>
 8001930:	2280      	movs	r2, #128	@ 0x80
 8001932:	4b0f      	ldr	r3, [pc, #60]	@ (8001970 <HAL_UART_MspInit+0x58>)
 8001934:	0292      	lsls	r2, r2, #10
 8001936:	69d9      	ldr	r1, [r3, #28]
 8001938:	2090      	movs	r0, #144	@ 0x90
 800193a:	4311      	orrs	r1, r2
 800193c:	61d9      	str	r1, [r3, #28]
 800193e:	69d9      	ldr	r1, [r3, #28]
 8001940:	05c0      	lsls	r0, r0, #23
 8001942:	4011      	ands	r1, r2
 8001944:	9101      	str	r1, [sp, #4]
 8001946:	9901      	ldr	r1, [sp, #4]
 8001948:	6959      	ldr	r1, [r3, #20]
 800194a:	4311      	orrs	r1, r2
 800194c:	6159      	str	r1, [r3, #20]
 800194e:	695b      	ldr	r3, [r3, #20]
 8001950:	a903      	add	r1, sp, #12
 8001952:	4013      	ands	r3, r2
 8001954:	9302      	str	r3, [sp, #8]
 8001956:	9b02      	ldr	r3, [sp, #8]
 8001958:	230c      	movs	r3, #12
 800195a:	9303      	str	r3, [sp, #12]
 800195c:	3b0a      	subs	r3, #10
 800195e:	9304      	str	r3, [sp, #16]
 8001960:	3b01      	subs	r3, #1
 8001962:	9307      	str	r3, [sp, #28]
 8001964:	f000 fadc 	bl	8001f20 <HAL_GPIO_Init>
 8001968:	b008      	add	sp, #32
 800196a:	bd10      	pop	{r4, pc}
 800196c:	40004400 	.word	0x40004400
 8001970:	40021000 	.word	0x40021000

08001974 <NMI_Handler>:
 8001974:	e7fe      	b.n	8001974 <NMI_Handler>

08001976 <HardFault_Handler>:
 8001976:	e7fe      	b.n	8001976 <HardFault_Handler>

08001978 <SVC_Handler>:
 8001978:	4770      	bx	lr

0800197a <PendSV_Handler>:
 800197a:	4770      	bx	lr

0800197c <SysTick_Handler>:
 800197c:	b510      	push	{r4, lr}
 800197e:	f000 f861 	bl	8001a44 <HAL_IncTick>
 8001982:	bd10      	pop	{r4, pc}

08001984 <SystemInit>:
 8001984:	4770      	bx	lr
	...

08001988 <Reset_Handler>:
 8001988:	480d      	ldr	r0, [pc, #52]	@ (80019c0 <LoopForever+0x2>)
 800198a:	4685      	mov	sp, r0
 800198c:	f7ff fffa 	bl	8001984 <SystemInit>
 8001990:	480c      	ldr	r0, [pc, #48]	@ (80019c4 <LoopForever+0x6>)
 8001992:	490d      	ldr	r1, [pc, #52]	@ (80019c8 <LoopForever+0xa>)
 8001994:	4a0d      	ldr	r2, [pc, #52]	@ (80019cc <LoopForever+0xe>)
 8001996:	2300      	movs	r3, #0
 8001998:	e002      	b.n	80019a0 <LoopCopyDataInit>

0800199a <CopyDataInit>:
 800199a:	58d4      	ldr	r4, [r2, r3]
 800199c:	50c4      	str	r4, [r0, r3]
 800199e:	3304      	adds	r3, #4

080019a0 <LoopCopyDataInit>:
 80019a0:	18c4      	adds	r4, r0, r3
 80019a2:	428c      	cmp	r4, r1
 80019a4:	d3f9      	bcc.n	800199a <CopyDataInit>
 80019a6:	4a0a      	ldr	r2, [pc, #40]	@ (80019d0 <LoopForever+0x12>)
 80019a8:	4c0a      	ldr	r4, [pc, #40]	@ (80019d4 <LoopForever+0x16>)
 80019aa:	2300      	movs	r3, #0
 80019ac:	e001      	b.n	80019b2 <LoopFillZerobss>

080019ae <FillZerobss>:
 80019ae:	6013      	str	r3, [r2, #0]
 80019b0:	3204      	adds	r2, #4

080019b2 <LoopFillZerobss>:
 80019b2:	42a2      	cmp	r2, r4
 80019b4:	d3fb      	bcc.n	80019ae <FillZerobss>
 80019b6:	f001 f991 	bl	8002cdc <__libc_init_array>
 80019ba:	f7ff fe8d 	bl	80016d8 <main>

080019be <LoopForever>:
 80019be:	e7fe      	b.n	80019be <LoopForever>
 80019c0:	20008000 	.word	0x20008000
 80019c4:	20000000 	.word	0x20000000
 80019c8:	20000010 	.word	0x20000010
 80019cc:	08002dbc 	.word	0x08002dbc
 80019d0:	20000010 	.word	0x20000010
 80019d4:	20000100 	.word	0x20000100

080019d8 <ADC1_COMP_IRQHandler>:
 80019d8:	e7fe      	b.n	80019d8 <ADC1_COMP_IRQHandler>
	...

080019dc <HAL_InitTick>:
 80019dc:	b570      	push	{r4, r5, r6, lr}
 80019de:	0005      	movs	r5, r0
 80019e0:	20fa      	movs	r0, #250	@ 0xfa
 80019e2:	4b0d      	ldr	r3, [pc, #52]	@ (8001a18 <HAL_InitTick+0x3c>)
 80019e4:	0080      	lsls	r0, r0, #2
 80019e6:	7819      	ldrb	r1, [r3, #0]
 80019e8:	f7fe fb96 	bl	8000118 <__udivsi3>
 80019ec:	4c0b      	ldr	r4, [pc, #44]	@ (8001a1c <HAL_InitTick+0x40>)
 80019ee:	0001      	movs	r1, r0
 80019f0:	6820      	ldr	r0, [r4, #0]
 80019f2:	f7fe fb91 	bl	8000118 <__udivsi3>
 80019f6:	f000 fa79 	bl	8001eec <HAL_SYSTICK_Config>
 80019fa:	0004      	movs	r4, r0
 80019fc:	2001      	movs	r0, #1
 80019fe:	2c00      	cmp	r4, #0
 8001a00:	d109      	bne.n	8001a16 <HAL_InitTick+0x3a>
 8001a02:	2d03      	cmp	r5, #3
 8001a04:	d807      	bhi.n	8001a16 <HAL_InitTick+0x3a>
 8001a06:	3802      	subs	r0, #2
 8001a08:	0022      	movs	r2, r4
 8001a0a:	0029      	movs	r1, r5
 8001a0c:	f000 fa44 	bl	8001e98 <HAL_NVIC_SetPriority>
 8001a10:	0020      	movs	r0, r4
 8001a12:	4b03      	ldr	r3, [pc, #12]	@ (8001a20 <HAL_InitTick+0x44>)
 8001a14:	601d      	str	r5, [r3, #0]
 8001a16:	bd70      	pop	{r4, r5, r6, pc}
 8001a18:	20000008 	.word	0x20000008
 8001a1c:	20000004 	.word	0x20000004
 8001a20:	2000000c 	.word	0x2000000c

08001a24 <HAL_Init>:
 8001a24:	2310      	movs	r3, #16
 8001a26:	4a06      	ldr	r2, [pc, #24]	@ (8001a40 <HAL_Init+0x1c>)
 8001a28:	b510      	push	{r4, lr}
 8001a2a:	6811      	ldr	r1, [r2, #0]
 8001a2c:	2000      	movs	r0, #0
 8001a2e:	430b      	orrs	r3, r1
 8001a30:	6013      	str	r3, [r2, #0]
 8001a32:	f7ff ffd3 	bl	80019dc <HAL_InitTick>
 8001a36:	f7ff ff29 	bl	800188c <HAL_MspInit>
 8001a3a:	2000      	movs	r0, #0
 8001a3c:	bd10      	pop	{r4, pc}
 8001a3e:	46c0      	nop			@ (mov r8, r8)
 8001a40:	40022000 	.word	0x40022000

08001a44 <HAL_IncTick>:
 8001a44:	4a03      	ldr	r2, [pc, #12]	@ (8001a54 <HAL_IncTick+0x10>)
 8001a46:	4b04      	ldr	r3, [pc, #16]	@ (8001a58 <HAL_IncTick+0x14>)
 8001a48:	6811      	ldr	r1, [r2, #0]
 8001a4a:	781b      	ldrb	r3, [r3, #0]
 8001a4c:	185b      	adds	r3, r3, r1
 8001a4e:	6013      	str	r3, [r2, #0]
 8001a50:	4770      	bx	lr
 8001a52:	46c0      	nop			@ (mov r8, r8)
 8001a54:	200000fc 	.word	0x200000fc
 8001a58:	20000008 	.word	0x20000008

08001a5c <HAL_GetTick>:
 8001a5c:	4b01      	ldr	r3, [pc, #4]	@ (8001a64 <HAL_GetTick+0x8>)
 8001a5e:	6818      	ldr	r0, [r3, #0]
 8001a60:	4770      	bx	lr
 8001a62:	46c0      	nop			@ (mov r8, r8)
 8001a64:	200000fc 	.word	0x200000fc

08001a68 <HAL_Delay>:
 8001a68:	b570      	push	{r4, r5, r6, lr}
 8001a6a:	0004      	movs	r4, r0
 8001a6c:	f7ff fff6 	bl	8001a5c <HAL_GetTick>
 8001a70:	0005      	movs	r5, r0
 8001a72:	1c63      	adds	r3, r4, #1
 8001a74:	d002      	beq.n	8001a7c <HAL_Delay+0x14>
 8001a76:	4b04      	ldr	r3, [pc, #16]	@ (8001a88 <HAL_Delay+0x20>)
 8001a78:	781b      	ldrb	r3, [r3, #0]
 8001a7a:	18e4      	adds	r4, r4, r3
 8001a7c:	f7ff ffee 	bl	8001a5c <HAL_GetTick>
 8001a80:	1b40      	subs	r0, r0, r5
 8001a82:	42a0      	cmp	r0, r4
 8001a84:	d3fa      	bcc.n	8001a7c <HAL_Delay+0x14>
 8001a86:	bd70      	pop	{r4, r5, r6, pc}
 8001a88:	20000008 	.word	0x20000008

08001a8c <ADC_Enable.constprop.0>:
 8001a8c:	2300      	movs	r3, #0
 8001a8e:	b573      	push	{r0, r1, r4, r5, r6, lr}
 8001a90:	2103      	movs	r1, #3
 8001a92:	9301      	str	r3, [sp, #4]
 8001a94:	6803      	ldr	r3, [r0, #0]
 8001a96:	0004      	movs	r4, r0
 8001a98:	689a      	ldr	r2, [r3, #8]
 8001a9a:	400a      	ands	r2, r1
 8001a9c:	2a01      	cmp	r2, #1
 8001a9e:	d107      	bne.n	8001ab0 <ADC_Enable.constprop.0+0x24>
 8001aa0:	6819      	ldr	r1, [r3, #0]
 8001aa2:	4211      	tst	r1, r2
 8001aa4:	d001      	beq.n	8001aaa <ADC_Enable.constprop.0+0x1e>
 8001aa6:	2000      	movs	r0, #0
 8001aa8:	bd76      	pop	{r1, r2, r4, r5, r6, pc}
 8001aaa:	68da      	ldr	r2, [r3, #12]
 8001aac:	0412      	lsls	r2, r2, #16
 8001aae:	d4fa      	bmi.n	8001aa6 <ADC_Enable.constprop.0+0x1a>
 8001ab0:	6899      	ldr	r1, [r3, #8]
 8001ab2:	4a1b      	ldr	r2, [pc, #108]	@ (8001b20 <ADC_Enable.constprop.0+0x94>)
 8001ab4:	4211      	tst	r1, r2
 8001ab6:	d009      	beq.n	8001acc <ADC_Enable.constprop.0+0x40>
 8001ab8:	2310      	movs	r3, #16
 8001aba:	6ba2      	ldr	r2, [r4, #56]	@ 0x38
 8001abc:	4313      	orrs	r3, r2
 8001abe:	63a3      	str	r3, [r4, #56]	@ 0x38
 8001ac0:	2301      	movs	r3, #1
 8001ac2:	6be2      	ldr	r2, [r4, #60]	@ 0x3c
 8001ac4:	4313      	orrs	r3, r2
 8001ac6:	2001      	movs	r0, #1
 8001ac8:	63e3      	str	r3, [r4, #60]	@ 0x3c
 8001aca:	e7ed      	b.n	8001aa8 <ADC_Enable.constprop.0+0x1c>
 8001acc:	2201      	movs	r2, #1
 8001ace:	6899      	ldr	r1, [r3, #8]
 8001ad0:	430a      	orrs	r2, r1
 8001ad2:	609a      	str	r2, [r3, #8]
 8001ad4:	4b13      	ldr	r3, [pc, #76]	@ (8001b24 <ADC_Enable.constprop.0+0x98>)
 8001ad6:	4914      	ldr	r1, [pc, #80]	@ (8001b28 <ADC_Enable.constprop.0+0x9c>)
 8001ad8:	6818      	ldr	r0, [r3, #0]
 8001ada:	f7fe fb1d 	bl	8000118 <__udivsi3>
 8001ade:	9001      	str	r0, [sp, #4]
 8001ae0:	9b01      	ldr	r3, [sp, #4]
 8001ae2:	2b00      	cmp	r3, #0
 8001ae4:	d117      	bne.n	8001b16 <ADC_Enable.constprop.0+0x8a>
 8001ae6:	f7ff ffb9 	bl	8001a5c <HAL_GetTick>
 8001aea:	2501      	movs	r5, #1
 8001aec:	0006      	movs	r6, r0
 8001aee:	6823      	ldr	r3, [r4, #0]
 8001af0:	681b      	ldr	r3, [r3, #0]
 8001af2:	422b      	tst	r3, r5
 8001af4:	d1d7      	bne.n	8001aa6 <ADC_Enable.constprop.0+0x1a>
 8001af6:	f7ff ffb1 	bl	8001a5c <HAL_GetTick>
 8001afa:	1b80      	subs	r0, r0, r6
 8001afc:	2802      	cmp	r0, #2
 8001afe:	d9f6      	bls.n	8001aee <ADC_Enable.constprop.0+0x62>
 8001b00:	6823      	ldr	r3, [r4, #0]
 8001b02:	681b      	ldr	r3, [r3, #0]
 8001b04:	422b      	tst	r3, r5
 8001b06:	d1f2      	bne.n	8001aee <ADC_Enable.constprop.0+0x62>
 8001b08:	2310      	movs	r3, #16
 8001b0a:	6ba2      	ldr	r2, [r4, #56]	@ 0x38
 8001b0c:	4313      	orrs	r3, r2
 8001b0e:	63a3      	str	r3, [r4, #56]	@ 0x38
 8001b10:	6be3      	ldr	r3, [r4, #60]	@ 0x3c
 8001b12:	432b      	orrs	r3, r5
 8001b14:	e7d7      	b.n	8001ac6 <ADC_Enable.constprop.0+0x3a>
 8001b16:	9b01      	ldr	r3, [sp, #4]
 8001b18:	3b01      	subs	r3, #1
 8001b1a:	9301      	str	r3, [sp, #4]
 8001b1c:	e7e0      	b.n	8001ae0 <ADC_Enable.constprop.0+0x54>
 8001b1e:	46c0      	nop			@ (mov r8, r8)
 8001b20:	80000017 	.word	0x80000017
 8001b24:	20000004 	.word	0x20000004
 8001b28:	000f4240 	.word	0x000f4240

08001b2c <HAL_ADC_Init>:
 8001b2c:	b570      	push	{r4, r5, r6, lr}
 8001b2e:	1e04      	subs	r4, r0, #0
 8001b30:	d100      	bne.n	8001b34 <HAL_ADC_Init+0x8>
 8001b32:	e090      	b.n	8001c56 <HAL_ADC_Init+0x12a>
 8001b34:	6b83      	ldr	r3, [r0, #56]	@ 0x38
 8001b36:	2b00      	cmp	r3, #0
 8001b38:	d105      	bne.n	8001b46 <HAL_ADC_Init+0x1a>
 8001b3a:	0002      	movs	r2, r0
 8001b3c:	3234      	adds	r2, #52	@ 0x34
 8001b3e:	63c3      	str	r3, [r0, #60]	@ 0x3c
 8001b40:	7013      	strb	r3, [r2, #0]
 8001b42:	f7ff febb 	bl	80018bc <HAL_ADC_MspInit>
 8001b46:	6ba3      	ldr	r3, [r4, #56]	@ 0x38
 8001b48:	06db      	lsls	r3, r3, #27
 8001b4a:	d500      	bpl.n	8001b4e <HAL_ADC_Init+0x22>
 8001b4c:	e085      	b.n	8001c5a <HAL_ADC_Init+0x12e>
 8001b4e:	6822      	ldr	r2, [r4, #0]
 8001b50:	6893      	ldr	r3, [r2, #8]
 8001b52:	075b      	lsls	r3, r3, #29
 8001b54:	d500      	bpl.n	8001b58 <HAL_ADC_Init+0x2c>
 8001b56:	e080      	b.n	8001c5a <HAL_ADC_Init+0x12e>
 8001b58:	6ba1      	ldr	r1, [r4, #56]	@ 0x38
 8001b5a:	4b42      	ldr	r3, [pc, #264]	@ (8001c64 <HAL_ADC_Init+0x138>)
 8001b5c:	4019      	ands	r1, r3
 8001b5e:	3306      	adds	r3, #6
 8001b60:	33ff      	adds	r3, #255	@ 0xff
 8001b62:	430b      	orrs	r3, r1
 8001b64:	2103      	movs	r1, #3
 8001b66:	63a3      	str	r3, [r4, #56]	@ 0x38
 8001b68:	6893      	ldr	r3, [r2, #8]
 8001b6a:	400b      	ands	r3, r1
 8001b6c:	2b01      	cmp	r3, #1
 8001b6e:	d105      	bne.n	8001b7c <HAL_ADC_Init+0x50>
 8001b70:	6811      	ldr	r1, [r2, #0]
 8001b72:	4219      	tst	r1, r3
 8001b74:	d10e      	bne.n	8001b94 <HAL_ADC_Init+0x68>
 8001b76:	68d3      	ldr	r3, [r2, #12]
 8001b78:	041b      	lsls	r3, r3, #16
 8001b7a:	d40b      	bmi.n	8001b94 <HAL_ADC_Init+0x68>
 8001b7c:	2118      	movs	r1, #24
 8001b7e:	68d3      	ldr	r3, [r2, #12]
 8001b80:	438b      	bics	r3, r1
 8001b82:	68a1      	ldr	r1, [r4, #8]
 8001b84:	430b      	orrs	r3, r1
 8001b86:	60d3      	str	r3, [r2, #12]
 8001b88:	6913      	ldr	r3, [r2, #16]
 8001b8a:	6861      	ldr	r1, [r4, #4]
 8001b8c:	009b      	lsls	r3, r3, #2
 8001b8e:	089b      	lsrs	r3, r3, #2
 8001b90:	430b      	orrs	r3, r1
 8001b92:	6113      	str	r3, [r2, #16]
 8001b94:	68d3      	ldr	r3, [r2, #12]
 8001b96:	4934      	ldr	r1, [pc, #208]	@ (8001c68 <HAL_ADC_Init+0x13c>)
 8001b98:	400b      	ands	r3, r1
 8001b9a:	60d3      	str	r3, [r2, #12]
 8001b9c:	7e23      	ldrb	r3, [r4, #24]
 8001b9e:	7e60      	ldrb	r0, [r4, #25]
 8001ba0:	039b      	lsls	r3, r3, #14
 8001ba2:	03c0      	lsls	r0, r0, #15
 8001ba4:	4303      	orrs	r3, r0
 8001ba6:	7ea1      	ldrb	r1, [r4, #26]
 8001ba8:	68e0      	ldr	r0, [r4, #12]
 8001baa:	4303      	orrs	r3, r0
 8001bac:	0348      	lsls	r0, r1, #13
 8001bae:	4303      	orrs	r3, r0
 8001bb0:	1d60      	adds	r0, r4, #5
 8001bb2:	7fc0      	ldrb	r0, [r0, #31]
 8001bb4:	0040      	lsls	r0, r0, #1
 8001bb6:	4303      	orrs	r3, r0
 8001bb8:	6aa0      	ldr	r0, [r4, #40]	@ 0x28
 8001bba:	3801      	subs	r0, #1
 8001bbc:	1e45      	subs	r5, r0, #1
 8001bbe:	41a8      	sbcs	r0, r5
 8001bc0:	0300      	lsls	r0, r0, #12
 8001bc2:	4303      	orrs	r3, r0
 8001bc4:	6920      	ldr	r0, [r4, #16]
 8001bc6:	3802      	subs	r0, #2
 8001bc8:	4245      	negs	r5, r0
 8001bca:	4168      	adcs	r0, r5
 8001bcc:	0080      	lsls	r0, r0, #2
 8001bce:	4303      	orrs	r3, r0
 8001bd0:	7ee0      	ldrb	r0, [r4, #27]
 8001bd2:	2801      	cmp	r0, #1
 8001bd4:	d104      	bne.n	8001be0 <HAL_ADC_Init+0xb4>
 8001bd6:	2900      	cmp	r1, #0
 8001bd8:	d12b      	bne.n	8001c32 <HAL_ADC_Init+0x106>
 8001bda:	2180      	movs	r1, #128	@ 0x80
 8001bdc:	0249      	lsls	r1, r1, #9
 8001bde:	430b      	orrs	r3, r1
 8001be0:	20c2      	movs	r0, #194	@ 0xc2
 8001be2:	69e1      	ldr	r1, [r4, #28]
 8001be4:	30ff      	adds	r0, #255	@ 0xff
 8001be6:	4281      	cmp	r1, r0
 8001be8:	d002      	beq.n	8001bf0 <HAL_ADC_Init+0xc4>
 8001bea:	6a20      	ldr	r0, [r4, #32]
 8001bec:	4301      	orrs	r1, r0
 8001bee:	430b      	orrs	r3, r1
 8001bf0:	2080      	movs	r0, #128	@ 0x80
 8001bf2:	68d1      	ldr	r1, [r2, #12]
 8001bf4:	0540      	lsls	r0, r0, #21
 8001bf6:	4319      	orrs	r1, r3
 8001bf8:	60d1      	str	r1, [r2, #12]
 8001bfa:	6ae1      	ldr	r1, [r4, #44]	@ 0x2c
 8001bfc:	4281      	cmp	r1, r0
 8001bfe:	d002      	beq.n	8001c06 <HAL_ADC_Init+0xda>
 8001c00:	1e48      	subs	r0, r1, #1
 8001c02:	2806      	cmp	r0, #6
 8001c04:	d807      	bhi.n	8001c16 <HAL_ADC_Init+0xea>
 8001c06:	2507      	movs	r5, #7
 8001c08:	6950      	ldr	r0, [r2, #20]
 8001c0a:	4029      	ands	r1, r5
 8001c0c:	43a8      	bics	r0, r5
 8001c0e:	6150      	str	r0, [r2, #20]
 8001c10:	6950      	ldr	r0, [r2, #20]
 8001c12:	4301      	orrs	r1, r0
 8001c14:	6151      	str	r1, [r2, #20]
 8001c16:	68d2      	ldr	r2, [r2, #12]
 8001c18:	4914      	ldr	r1, [pc, #80]	@ (8001c6c <HAL_ADC_Init+0x140>)
 8001c1a:	400a      	ands	r2, r1
 8001c1c:	429a      	cmp	r2, r3
 8001c1e:	d110      	bne.n	8001c42 <HAL_ADC_Init+0x116>
 8001c20:	2000      	movs	r0, #0
 8001c22:	2303      	movs	r3, #3
 8001c24:	63e0      	str	r0, [r4, #60]	@ 0x3c
 8001c26:	6ba2      	ldr	r2, [r4, #56]	@ 0x38
 8001c28:	439a      	bics	r2, r3
 8001c2a:	3b02      	subs	r3, #2
 8001c2c:	4313      	orrs	r3, r2
 8001c2e:	63a3      	str	r3, [r4, #56]	@ 0x38
 8001c30:	bd70      	pop	{r4, r5, r6, pc}
 8001c32:	2120      	movs	r1, #32
 8001c34:	6ba5      	ldr	r5, [r4, #56]	@ 0x38
 8001c36:	4329      	orrs	r1, r5
 8001c38:	63a1      	str	r1, [r4, #56]	@ 0x38
 8001c3a:	6be1      	ldr	r1, [r4, #60]	@ 0x3c
 8001c3c:	4308      	orrs	r0, r1
 8001c3e:	63e0      	str	r0, [r4, #60]	@ 0x3c
 8001c40:	e7ce      	b.n	8001be0 <HAL_ADC_Init+0xb4>
 8001c42:	2312      	movs	r3, #18
 8001c44:	6ba2      	ldr	r2, [r4, #56]	@ 0x38
 8001c46:	439a      	bics	r2, r3
 8001c48:	3b02      	subs	r3, #2
 8001c4a:	4313      	orrs	r3, r2
 8001c4c:	63a3      	str	r3, [r4, #56]	@ 0x38
 8001c4e:	2301      	movs	r3, #1
 8001c50:	6be2      	ldr	r2, [r4, #60]	@ 0x3c
 8001c52:	4313      	orrs	r3, r2
 8001c54:	63e3      	str	r3, [r4, #60]	@ 0x3c
 8001c56:	2001      	movs	r0, #1
 8001c58:	e7ea      	b.n	8001c30 <HAL_ADC_Init+0x104>
 8001c5a:	2310      	movs	r3, #16
 8001c5c:	6ba2      	ldr	r2, [r4, #56]	@ 0x38
 8001c5e:	4313      	orrs	r3, r2
 8001c60:	63a3      	str	r3, [r4, #56]	@ 0x38
 8001c62:	e7f8      	b.n	8001c56 <HAL_ADC_Init+0x12a>
 8001c64:	fffffefd 	.word	0xfffffefd
 8001c68:	fffe0219 	.word	0xfffe0219
 8001c6c:	833fffe7 	.word	0x833fffe7

08001c70 <HAL_ADC_Start>:
 8001c70:	6803      	ldr	r3, [r0, #0]
 8001c72:	b570      	push	{r4, r5, r6, lr}
 8001c74:	689b      	ldr	r3, [r3, #8]
 8001c76:	0004      	movs	r4, r0
 8001c78:	2002      	movs	r0, #2
 8001c7a:	075b      	lsls	r3, r3, #29
 8001c7c:	d41a      	bmi.n	8001cb4 <HAL_ADC_Start+0x44>
 8001c7e:	0025      	movs	r5, r4
 8001c80:	3534      	adds	r5, #52	@ 0x34
 8001c82:	782b      	ldrb	r3, [r5, #0]
 8001c84:	2b01      	cmp	r3, #1
 8001c86:	d015      	beq.n	8001cb4 <HAL_ADC_Start+0x44>
 8001c88:	2301      	movs	r3, #1
 8001c8a:	702b      	strb	r3, [r5, #0]
 8001c8c:	7e63      	ldrb	r3, [r4, #25]
 8001c8e:	2b01      	cmp	r3, #1
 8001c90:	d111      	bne.n	8001cb6 <HAL_ADC_Start+0x46>
 8001c92:	6ba2      	ldr	r2, [r4, #56]	@ 0x38
 8001c94:	4b0b      	ldr	r3, [pc, #44]	@ (8001cc4 <HAL_ADC_Start+0x54>)
 8001c96:	2000      	movs	r0, #0
 8001c98:	401a      	ands	r2, r3
 8001c9a:	2380      	movs	r3, #128	@ 0x80
 8001c9c:	005b      	lsls	r3, r3, #1
 8001c9e:	4313      	orrs	r3, r2
 8001ca0:	221c      	movs	r2, #28
 8001ca2:	63a3      	str	r3, [r4, #56]	@ 0x38
 8001ca4:	63e0      	str	r0, [r4, #60]	@ 0x3c
 8001ca6:	7028      	strb	r0, [r5, #0]
 8001ca8:	6823      	ldr	r3, [r4, #0]
 8001caa:	601a      	str	r2, [r3, #0]
 8001cac:	6899      	ldr	r1, [r3, #8]
 8001cae:	3a18      	subs	r2, #24
 8001cb0:	430a      	orrs	r2, r1
 8001cb2:	609a      	str	r2, [r3, #8]
 8001cb4:	bd70      	pop	{r4, r5, r6, pc}
 8001cb6:	0020      	movs	r0, r4
 8001cb8:	f7ff fee8 	bl	8001a8c <ADC_Enable.constprop.0>
 8001cbc:	2800      	cmp	r0, #0
 8001cbe:	d0e8      	beq.n	8001c92 <HAL_ADC_Start+0x22>
 8001cc0:	e7f8      	b.n	8001cb4 <HAL_ADC_Start+0x44>
 8001cc2:	46c0      	nop			@ (mov r8, r8)
 8001cc4:	fffff0fe 	.word	0xfffff0fe

08001cc8 <HAL_ADC_PollForConversion>:
 8001cc8:	b5f8      	push	{r3, r4, r5, r6, r7, lr}
 8001cca:	6945      	ldr	r5, [r0, #20]
 8001ccc:	0004      	movs	r4, r0
 8001cce:	000e      	movs	r6, r1
 8001cd0:	2d08      	cmp	r5, #8
 8001cd2:	d00d      	beq.n	8001cf0 <HAL_ADC_PollForConversion+0x28>
 8001cd4:	6803      	ldr	r3, [r0, #0]
 8001cd6:	2001      	movs	r0, #1
 8001cd8:	68db      	ldr	r3, [r3, #12]
 8001cda:	250c      	movs	r5, #12
 8001cdc:	4203      	tst	r3, r0
 8001cde:	d007      	beq.n	8001cf0 <HAL_ADC_PollForConversion+0x28>
 8001ce0:	2320      	movs	r3, #32
 8001ce2:	6ba2      	ldr	r2, [r4, #56]	@ 0x38
 8001ce4:	3434      	adds	r4, #52	@ 0x34
 8001ce6:	4313      	orrs	r3, r2
 8001ce8:	6063      	str	r3, [r4, #4]
 8001cea:	2300      	movs	r3, #0
 8001cec:	7023      	strb	r3, [r4, #0]
 8001cee:	bdf8      	pop	{r3, r4, r5, r6, r7, pc}
 8001cf0:	f7ff feb4 	bl	8001a5c <HAL_GetTick>
 8001cf4:	0007      	movs	r7, r0
 8001cf6:	6823      	ldr	r3, [r4, #0]
 8001cf8:	681a      	ldr	r2, [r3, #0]
 8001cfa:	4215      	tst	r5, r2
 8001cfc:	d022      	beq.n	8001d44 <HAL_ADC_PollForConversion+0x7c>
 8001cfe:	2280      	movs	r2, #128	@ 0x80
 8001d00:	6ba1      	ldr	r1, [r4, #56]	@ 0x38
 8001d02:	0092      	lsls	r2, r2, #2
 8001d04:	430a      	orrs	r2, r1
 8001d06:	63a2      	str	r2, [r4, #56]	@ 0x38
 8001d08:	22c0      	movs	r2, #192	@ 0xc0
 8001d0a:	68d9      	ldr	r1, [r3, #12]
 8001d0c:	0112      	lsls	r2, r2, #4
 8001d0e:	4211      	tst	r1, r2
 8001d10:	d113      	bne.n	8001d3a <HAL_ADC_PollForConversion+0x72>
 8001d12:	7ea2      	ldrb	r2, [r4, #26]
 8001d14:	2a00      	cmp	r2, #0
 8001d16:	d110      	bne.n	8001d3a <HAL_ADC_PollForConversion+0x72>
 8001d18:	681a      	ldr	r2, [r3, #0]
 8001d1a:	0712      	lsls	r2, r2, #28
 8001d1c:	d50d      	bpl.n	8001d3a <HAL_ADC_PollForConversion+0x72>
 8001d1e:	689a      	ldr	r2, [r3, #8]
 8001d20:	0752      	lsls	r2, r2, #29
 8001d22:	d427      	bmi.n	8001d74 <HAL_ADC_PollForConversion+0xac>
 8001d24:	210c      	movs	r1, #12
 8001d26:	685a      	ldr	r2, [r3, #4]
 8001d28:	438a      	bics	r2, r1
 8001d2a:	605a      	str	r2, [r3, #4]
 8001d2c:	6ba1      	ldr	r1, [r4, #56]	@ 0x38
 8001d2e:	4a17      	ldr	r2, [pc, #92]	@ (8001d8c <HAL_ADC_PollForConversion+0xc4>)
 8001d30:	4011      	ands	r1, r2
 8001d32:	3204      	adds	r2, #4
 8001d34:	32ff      	adds	r2, #255	@ 0xff
 8001d36:	430a      	orrs	r2, r1
 8001d38:	63a2      	str	r2, [r4, #56]	@ 0x38
 8001d3a:	7e22      	ldrb	r2, [r4, #24]
 8001d3c:	2a00      	cmp	r2, #0
 8001d3e:	d022      	beq.n	8001d86 <HAL_ADC_PollForConversion+0xbe>
 8001d40:	2000      	movs	r0, #0
 8001d42:	e7d4      	b.n	8001cee <HAL_ADC_PollForConversion+0x26>
 8001d44:	1c72      	adds	r2, r6, #1
 8001d46:	d0d7      	beq.n	8001cf8 <HAL_ADC_PollForConversion+0x30>
 8001d48:	2e00      	cmp	r6, #0
 8001d4a:	d10d      	bne.n	8001d68 <HAL_ADC_PollForConversion+0xa0>
 8001d4c:	002a      	movs	r2, r5
 8001d4e:	6823      	ldr	r3, [r4, #0]
 8001d50:	681b      	ldr	r3, [r3, #0]
 8001d52:	401a      	ands	r2, r3
 8001d54:	421d      	tst	r5, r3
 8001d56:	d1ce      	bne.n	8001cf6 <HAL_ADC_PollForConversion+0x2e>
 8001d58:	2304      	movs	r3, #4
 8001d5a:	6ba1      	ldr	r1, [r4, #56]	@ 0x38
 8001d5c:	3434      	adds	r4, #52	@ 0x34
 8001d5e:	430b      	orrs	r3, r1
 8001d60:	6063      	str	r3, [r4, #4]
 8001d62:	2003      	movs	r0, #3
 8001d64:	7022      	strb	r2, [r4, #0]
 8001d66:	e7c2      	b.n	8001cee <HAL_ADC_PollForConversion+0x26>
 8001d68:	f7ff fe78 	bl	8001a5c <HAL_GetTick>
 8001d6c:	1bc0      	subs	r0, r0, r7
 8001d6e:	42b0      	cmp	r0, r6
 8001d70:	d8ec      	bhi.n	8001d4c <HAL_ADC_PollForConversion+0x84>
 8001d72:	e7c0      	b.n	8001cf6 <HAL_ADC_PollForConversion+0x2e>
 8001d74:	2220      	movs	r2, #32
 8001d76:	6ba1      	ldr	r1, [r4, #56]	@ 0x38
 8001d78:	430a      	orrs	r2, r1
 8001d7a:	63a2      	str	r2, [r4, #56]	@ 0x38
 8001d7c:	2201      	movs	r2, #1
 8001d7e:	6be1      	ldr	r1, [r4, #60]	@ 0x3c
 8001d80:	430a      	orrs	r2, r1
 8001d82:	63e2      	str	r2, [r4, #60]	@ 0x3c
 8001d84:	e7d9      	b.n	8001d3a <HAL_ADC_PollForConversion+0x72>
 8001d86:	220c      	movs	r2, #12
 8001d88:	601a      	str	r2, [r3, #0]
 8001d8a:	e7d9      	b.n	8001d40 <HAL_ADC_PollForConversion+0x78>
 8001d8c:	fffffefe 	.word	0xfffffefe

08001d90 <HAL_ADC_GetValue>:
 8001d90:	6803      	ldr	r3, [r0, #0]
 8001d92:	6c18      	ldr	r0, [r3, #64]	@ 0x40
 8001d94:	4770      	bx	lr
	...

08001d98 <HAL_ADC_ConfigChannel>:
 8001d98:	b5f7      	push	{r0, r1, r2, r4, r5, r6, r7, lr}
 8001d9a:	2200      	movs	r2, #0
 8001d9c:	0004      	movs	r4, r0
 8001d9e:	9201      	str	r2, [sp, #4]
 8001da0:	3434      	adds	r4, #52	@ 0x34
 8001da2:	7822      	ldrb	r2, [r4, #0]
 8001da4:	0003      	movs	r3, r0
 8001da6:	6ac6      	ldr	r6, [r0, #44]	@ 0x2c
 8001da8:	2002      	movs	r0, #2
 8001daa:	2a01      	cmp	r2, #1
 8001dac:	d02c      	beq.n	8001e08 <HAL_ADC_ConfigChannel+0x70>
 8001dae:	3801      	subs	r0, #1
 8001db0:	7020      	strb	r0, [r4, #0]
 8001db2:	681a      	ldr	r2, [r3, #0]
 8001db4:	6895      	ldr	r5, [r2, #8]
 8001db6:	076d      	lsls	r5, r5, #29
 8001db8:	d45b      	bmi.n	8001e72 <HAL_ADC_ConfigChannel+0xda>
 8001dba:	680b      	ldr	r3, [r1, #0]
 8001dbc:	684f      	ldr	r7, [r1, #4]
 8001dbe:	001d      	movs	r5, r3
 8001dc0:	46bc      	mov	ip, r7
 8001dc2:	4f2e      	ldr	r7, [pc, #184]	@ (8001e7c <HAL_ADC_ConfigChannel+0xe4>)
 8001dc4:	4098      	lsls	r0, r3
 8001dc6:	3d10      	subs	r5, #16
 8001dc8:	45bc      	cmp	ip, r7
 8001dca:	d03c      	beq.n	8001e46 <HAL_ADC_ConfigChannel+0xae>
 8001dcc:	6a97      	ldr	r7, [r2, #40]	@ 0x28
 8001dce:	4338      	orrs	r0, r7
 8001dd0:	6290      	str	r0, [r2, #40]	@ 0x28
 8001dd2:	2e07      	cmp	r6, #7
 8001dd4:	d80f      	bhi.n	8001df6 <HAL_ADC_ConfigChannel+0x5e>
 8001dd6:	2e00      	cmp	r6, #0
 8001dd8:	d111      	bne.n	8001dfe <HAL_ADC_ConfigChannel+0x66>
 8001dda:	2007      	movs	r0, #7
 8001ddc:	6956      	ldr	r6, [r2, #20]
 8001dde:	6889      	ldr	r1, [r1, #8]
 8001de0:	4006      	ands	r6, r0
 8001de2:	42b1      	cmp	r1, r6
 8001de4:	d00b      	beq.n	8001dfe <HAL_ADC_ConfigChannel+0x66>
 8001de6:	6956      	ldr	r6, [r2, #20]
 8001de8:	4001      	ands	r1, r0
 8001dea:	4386      	bics	r6, r0
 8001dec:	6156      	str	r6, [r2, #20]
 8001dee:	6956      	ldr	r6, [r2, #20]
 8001df0:	4331      	orrs	r1, r6
 8001df2:	6151      	str	r1, [r2, #20]
 8001df4:	e003      	b.n	8001dfe <HAL_ADC_ConfigChannel+0x66>
 8001df6:	2080      	movs	r0, #128	@ 0x80
 8001df8:	0540      	lsls	r0, r0, #21
 8001dfa:	4286      	cmp	r6, r0
 8001dfc:	d1ed      	bne.n	8001dda <HAL_ADC_ConfigChannel+0x42>
 8001dfe:	2d02      	cmp	r5, #2
 8001e00:	d903      	bls.n	8001e0a <HAL_ADC_ConfigChannel+0x72>
 8001e02:	2000      	movs	r0, #0
 8001e04:	2300      	movs	r3, #0
 8001e06:	7023      	strb	r3, [r4, #0]
 8001e08:	bdfe      	pop	{r1, r2, r3, r4, r5, r6, r7, pc}
 8001e0a:	481d      	ldr	r0, [pc, #116]	@ (8001e80 <HAL_ADC_ConfigChannel+0xe8>)
 8001e0c:	2180      	movs	r1, #128	@ 0x80
 8001e0e:	6802      	ldr	r2, [r0, #0]
 8001e10:	2b10      	cmp	r3, #16
 8001e12:	d014      	beq.n	8001e3e <HAL_ADC_ConfigChannel+0xa6>
 8001e14:	2b11      	cmp	r3, #17
 8001e16:	d114      	bne.n	8001e42 <HAL_ADC_ConfigChannel+0xaa>
 8001e18:	03c9      	lsls	r1, r1, #15
 8001e1a:	430a      	orrs	r2, r1
 8001e1c:	6002      	str	r2, [r0, #0]
 8001e1e:	2b10      	cmp	r3, #16
 8001e20:	d1ef      	bne.n	8001e02 <HAL_ADC_ConfigChannel+0x6a>
 8001e22:	4b18      	ldr	r3, [pc, #96]	@ (8001e84 <HAL_ADC_ConfigChannel+0xec>)
 8001e24:	4918      	ldr	r1, [pc, #96]	@ (8001e88 <HAL_ADC_ConfigChannel+0xf0>)
 8001e26:	6818      	ldr	r0, [r3, #0]
 8001e28:	f7fe f976 	bl	8000118 <__udivsi3>
 8001e2c:	230a      	movs	r3, #10
 8001e2e:	4343      	muls	r3, r0
 8001e30:	9301      	str	r3, [sp, #4]
 8001e32:	9b01      	ldr	r3, [sp, #4]
 8001e34:	2b00      	cmp	r3, #0
 8001e36:	d0e4      	beq.n	8001e02 <HAL_ADC_ConfigChannel+0x6a>
 8001e38:	9b01      	ldr	r3, [sp, #4]
 8001e3a:	3b01      	subs	r3, #1
 8001e3c:	e7f8      	b.n	8001e30 <HAL_ADC_ConfigChannel+0x98>
 8001e3e:	0409      	lsls	r1, r1, #16
 8001e40:	e7eb      	b.n	8001e1a <HAL_ADC_ConfigChannel+0x82>
 8001e42:	0449      	lsls	r1, r1, #17
 8001e44:	e7e9      	b.n	8001e1a <HAL_ADC_ConfigChannel+0x82>
 8001e46:	6a91      	ldr	r1, [r2, #40]	@ 0x28
 8001e48:	4381      	bics	r1, r0
 8001e4a:	6291      	str	r1, [r2, #40]	@ 0x28
 8001e4c:	2d02      	cmp	r5, #2
 8001e4e:	d8d8      	bhi.n	8001e02 <HAL_ADC_ConfigChannel+0x6a>
 8001e50:	4a0b      	ldr	r2, [pc, #44]	@ (8001e80 <HAL_ADC_ConfigChannel+0xe8>)
 8001e52:	6811      	ldr	r1, [r2, #0]
 8001e54:	2b10      	cmp	r3, #16
 8001e56:	d00a      	beq.n	8001e6e <HAL_ADC_ConfigChannel+0xd6>
 8001e58:	3b11      	subs	r3, #17
 8001e5a:	1e58      	subs	r0, r3, #1
 8001e5c:	4183      	sbcs	r3, r0
 8001e5e:	480b      	ldr	r0, [pc, #44]	@ (8001e8c <HAL_ADC_ConfigChannel+0xf4>)
 8001e60:	425b      	negs	r3, r3
 8001e62:	4003      	ands	r3, r0
 8001e64:	480a      	ldr	r0, [pc, #40]	@ (8001e90 <HAL_ADC_ConfigChannel+0xf8>)
 8001e66:	181b      	adds	r3, r3, r0
 8001e68:	400b      	ands	r3, r1
 8001e6a:	6013      	str	r3, [r2, #0]
 8001e6c:	e7c9      	b.n	8001e02 <HAL_ADC_ConfigChannel+0x6a>
 8001e6e:	4b09      	ldr	r3, [pc, #36]	@ (8001e94 <HAL_ADC_ConfigChannel+0xfc>)
 8001e70:	e7fa      	b.n	8001e68 <HAL_ADC_ConfigChannel+0xd0>
 8001e72:	2220      	movs	r2, #32
 8001e74:	6b99      	ldr	r1, [r3, #56]	@ 0x38
 8001e76:	430a      	orrs	r2, r1
 8001e78:	639a      	str	r2, [r3, #56]	@ 0x38
 8001e7a:	e7c3      	b.n	8001e04 <HAL_ADC_ConfigChannel+0x6c>
 8001e7c:	00001001 	.word	0x00001001
 8001e80:	40012708 	.word	0x40012708
 8001e84:	20000004 	.word	0x20000004
 8001e88:	000f4240 	.word	0x000f4240
 8001e8c:	ff400000 	.word	0xff400000
 8001e90:	ffbfffff 	.word	0xffbfffff
 8001e94:	ff7fffff 	.word	0xff7fffff

08001e98 <HAL_NVIC_SetPriority>:
 8001e98:	b510      	push	{r4, lr}
 8001e9a:	24ff      	movs	r4, #255	@ 0xff
 8001e9c:	2203      	movs	r2, #3
 8001e9e:	000b      	movs	r3, r1
 8001ea0:	0021      	movs	r1, r4
 8001ea2:	4002      	ands	r2, r0
 8001ea4:	00d2      	lsls	r2, r2, #3
 8001ea6:	4091      	lsls	r1, r2
 8001ea8:	019b      	lsls	r3, r3, #6
 8001eaa:	4023      	ands	r3, r4
 8001eac:	43c9      	mvns	r1, r1
 8001eae:	4093      	lsls	r3, r2
 8001eb0:	2800      	cmp	r0, #0
 8001eb2:	db0a      	blt.n	8001eca <HAL_NVIC_SetPriority+0x32>
 8001eb4:	24c0      	movs	r4, #192	@ 0xc0
 8001eb6:	4a0b      	ldr	r2, [pc, #44]	@ (8001ee4 <HAL_NVIC_SetPriority+0x4c>)
 8001eb8:	0880      	lsrs	r0, r0, #2
 8001eba:	0080      	lsls	r0, r0, #2
 8001ebc:	1880      	adds	r0, r0, r2
 8001ebe:	00a4      	lsls	r4, r4, #2
 8001ec0:	5902      	ldr	r2, [r0, r4]
 8001ec2:	400a      	ands	r2, r1
 8001ec4:	4313      	orrs	r3, r2
 8001ec6:	5103      	str	r3, [r0, r4]
 8001ec8:	bd10      	pop	{r4, pc}
 8001eca:	220f      	movs	r2, #15
 8001ecc:	4010      	ands	r0, r2
 8001ece:	3808      	subs	r0, #8
 8001ed0:	4a05      	ldr	r2, [pc, #20]	@ (8001ee8 <HAL_NVIC_SetPriority+0x50>)
 8001ed2:	0880      	lsrs	r0, r0, #2
 8001ed4:	0080      	lsls	r0, r0, #2
 8001ed6:	1880      	adds	r0, r0, r2
 8001ed8:	69c2      	ldr	r2, [r0, #28]
 8001eda:	4011      	ands	r1, r2
 8001edc:	4319      	orrs	r1, r3
 8001ede:	61c1      	str	r1, [r0, #28]
 8001ee0:	e7f2      	b.n	8001ec8 <HAL_NVIC_SetPriority+0x30>
 8001ee2:	46c0      	nop			@ (mov r8, r8)
 8001ee4:	e000e100 	.word	0xe000e100
 8001ee8:	e000ed00 	.word	0xe000ed00

08001eec <HAL_SYSTICK_Config>:
 8001eec:	2280      	movs	r2, #128	@ 0x80
 8001eee:	1e43      	subs	r3, r0, #1
 8001ef0:	0452      	lsls	r2, r2, #17
 8001ef2:	2001      	movs	r0, #1
 8001ef4:	4293      	cmp	r3, r2
 8001ef6:	d20d      	bcs.n	8001f14 <HAL_SYSTICK_Config+0x28>
 8001ef8:	21c0      	movs	r1, #192	@ 0xc0
 8001efa:	4a07      	ldr	r2, [pc, #28]	@ (8001f18 <HAL_SYSTICK_Config+0x2c>)
 8001efc:	4807      	ldr	r0, [pc, #28]	@ (8001f1c <HAL_SYSTICK_Config+0x30>)
 8001efe:	6053      	str	r3, [r2, #4]
 8001f00:	6a03      	ldr	r3, [r0, #32]
 8001f02:	0609      	lsls	r1, r1, #24
 8001f04:	021b      	lsls	r3, r3, #8
 8001f06:	0a1b      	lsrs	r3, r3, #8
 8001f08:	430b      	orrs	r3, r1
 8001f0a:	6203      	str	r3, [r0, #32]
 8001f0c:	2000      	movs	r0, #0
 8001f0e:	2307      	movs	r3, #7
 8001f10:	6090      	str	r0, [r2, #8]
 8001f12:	6013      	str	r3, [r2, #0]
 8001f14:	4770      	bx	lr
 8001f16:	46c0      	nop			@ (mov r8, r8)
 8001f18:	e000e010 	.word	0xe000e010
 8001f1c:	e000ed00 	.word	0xe000ed00

08001f20 <HAL_GPIO_Init>:
 8001f20:	2300      	movs	r3, #0
 8001f22:	b5f0      	push	{r4, r5, r6, r7, lr}
 8001f24:	b087      	sub	sp, #28
 8001f26:	680a      	ldr	r2, [r1, #0]
 8001f28:	0014      	movs	r4, r2
 8001f2a:	40dc      	lsrs	r4, r3
 8001f2c:	d101      	bne.n	8001f32 <HAL_GPIO_Init+0x12>
 8001f2e:	b007      	add	sp, #28
 8001f30:	bdf0      	pop	{r4, r5, r6, r7, pc}
 8001f32:	2501      	movs	r5, #1
 8001f34:	0014      	movs	r4, r2
 8001f36:	409d      	lsls	r5, r3
 8001f38:	402c      	ands	r4, r5
 8001f3a:	9400      	str	r4, [sp, #0]
 8001f3c:	422a      	tst	r2, r5
 8001f3e:	d100      	bne.n	8001f42 <HAL_GPIO_Init+0x22>
 8001f40:	e09c      	b.n	800207c <HAL_GPIO_Init+0x15c>
 8001f42:	684a      	ldr	r2, [r1, #4]
 8001f44:	005f      	lsls	r7, r3, #1
 8001f46:	4694      	mov	ip, r2
 8001f48:	2203      	movs	r2, #3
 8001f4a:	4664      	mov	r4, ip
 8001f4c:	4022      	ands	r2, r4
 8001f4e:	2403      	movs	r4, #3
 8001f50:	40bc      	lsls	r4, r7
 8001f52:	43e4      	mvns	r4, r4
 8001f54:	9401      	str	r4, [sp, #4]
 8001f56:	1e54      	subs	r4, r2, #1
 8001f58:	2c01      	cmp	r4, #1
 8001f5a:	d82e      	bhi.n	8001fba <HAL_GPIO_Init+0x9a>
 8001f5c:	6886      	ldr	r6, [r0, #8]
 8001f5e:	9c01      	ldr	r4, [sp, #4]
 8001f60:	4026      	ands	r6, r4
 8001f62:	68cc      	ldr	r4, [r1, #12]
 8001f64:	40bc      	lsls	r4, r7
 8001f66:	4334      	orrs	r4, r6
 8001f68:	6084      	str	r4, [r0, #8]
 8001f6a:	6844      	ldr	r4, [r0, #4]
 8001f6c:	2601      	movs	r6, #1
 8001f6e:	43ac      	bics	r4, r5
 8001f70:	0025      	movs	r5, r4
 8001f72:	4664      	mov	r4, ip
 8001f74:	0924      	lsrs	r4, r4, #4
 8001f76:	4034      	ands	r4, r6
 8001f78:	409c      	lsls	r4, r3
 8001f7a:	432c      	orrs	r4, r5
 8001f7c:	6044      	str	r4, [r0, #4]
 8001f7e:	68c5      	ldr	r5, [r0, #12]
 8001f80:	9c01      	ldr	r4, [sp, #4]
 8001f82:	4025      	ands	r5, r4
 8001f84:	688c      	ldr	r4, [r1, #8]
 8001f86:	40bc      	lsls	r4, r7
 8001f88:	432c      	orrs	r4, r5
 8001f8a:	60c4      	str	r4, [r0, #12]
 8001f8c:	2a02      	cmp	r2, #2
 8001f8e:	d116      	bne.n	8001fbe <HAL_GPIO_Init+0x9e>
 8001f90:	2507      	movs	r5, #7
 8001f92:	260f      	movs	r6, #15
 8001f94:	401d      	ands	r5, r3
 8001f96:	00ad      	lsls	r5, r5, #2
 8001f98:	40ae      	lsls	r6, r5
 8001f9a:	08dc      	lsrs	r4, r3, #3
 8001f9c:	00a4      	lsls	r4, r4, #2
 8001f9e:	1904      	adds	r4, r0, r4
 8001fa0:	9402      	str	r4, [sp, #8]
 8001fa2:	6a24      	ldr	r4, [r4, #32]
 8001fa4:	9603      	str	r6, [sp, #12]
 8001fa6:	0026      	movs	r6, r4
 8001fa8:	9c03      	ldr	r4, [sp, #12]
 8001faa:	43a6      	bics	r6, r4
 8001fac:	0034      	movs	r4, r6
 8001fae:	690e      	ldr	r6, [r1, #16]
 8001fb0:	40ae      	lsls	r6, r5
 8001fb2:	4326      	orrs	r6, r4
 8001fb4:	9c02      	ldr	r4, [sp, #8]
 8001fb6:	6226      	str	r6, [r4, #32]
 8001fb8:	e001      	b.n	8001fbe <HAL_GPIO_Init+0x9e>
 8001fba:	2a03      	cmp	r2, #3
 8001fbc:	d1df      	bne.n	8001f7e <HAL_GPIO_Init+0x5e>
 8001fbe:	40ba      	lsls	r2, r7
 8001fc0:	6804      	ldr	r4, [r0, #0]
 8001fc2:	9d01      	ldr	r5, [sp, #4]
 8001fc4:	4025      	ands	r5, r4
 8001fc6:	432a      	orrs	r2, r5
 8001fc8:	24c0      	movs	r4, #192	@ 0xc0
 8001fca:	6002      	str	r2, [r0, #0]
 8001fcc:	4662      	mov	r2, ip
 8001fce:	02a4      	lsls	r4, r4, #10
 8001fd0:	4222      	tst	r2, r4
 8001fd2:	d053      	beq.n	800207c <HAL_GPIO_Init+0x15c>
 8001fd4:	2501      	movs	r5, #1
 8001fd6:	4a2a      	ldr	r2, [pc, #168]	@ (8002080 <HAL_GPIO_Init+0x160>)
 8001fd8:	2790      	movs	r7, #144	@ 0x90
 8001fda:	6994      	ldr	r4, [r2, #24]
 8001fdc:	05ff      	lsls	r7, r7, #23
 8001fde:	432c      	orrs	r4, r5
 8001fe0:	6194      	str	r4, [r2, #24]
 8001fe2:	6992      	ldr	r2, [r2, #24]
 8001fe4:	089c      	lsrs	r4, r3, #2
 8001fe6:	402a      	ands	r2, r5
 8001fe8:	9205      	str	r2, [sp, #20]
 8001fea:	9a05      	ldr	r2, [sp, #20]
 8001fec:	4a25      	ldr	r2, [pc, #148]	@ (8002084 <HAL_GPIO_Init+0x164>)
 8001fee:	00a4      	lsls	r4, r4, #2
 8001ff0:	18a4      	adds	r4, r4, r2
 8001ff2:	220f      	movs	r2, #15
 8001ff4:	3502      	adds	r5, #2
 8001ff6:	401d      	ands	r5, r3
 8001ff8:	00ad      	lsls	r5, r5, #2
 8001ffa:	40aa      	lsls	r2, r5
 8001ffc:	68a6      	ldr	r6, [r4, #8]
 8001ffe:	4396      	bics	r6, r2
 8002000:	2200      	movs	r2, #0
 8002002:	42b8      	cmp	r0, r7
 8002004:	d010      	beq.n	8002028 <HAL_GPIO_Init+0x108>
 8002006:	4f20      	ldr	r7, [pc, #128]	@ (8002088 <HAL_GPIO_Init+0x168>)
 8002008:	3201      	adds	r2, #1
 800200a:	42b8      	cmp	r0, r7
 800200c:	d00c      	beq.n	8002028 <HAL_GPIO_Init+0x108>
 800200e:	4f1f      	ldr	r7, [pc, #124]	@ (800208c <HAL_GPIO_Init+0x16c>)
 8002010:	3201      	adds	r2, #1
 8002012:	42b8      	cmp	r0, r7
 8002014:	d008      	beq.n	8002028 <HAL_GPIO_Init+0x108>
 8002016:	4f1e      	ldr	r7, [pc, #120]	@ (8002090 <HAL_GPIO_Init+0x170>)
 8002018:	3201      	adds	r2, #1
 800201a:	42b8      	cmp	r0, r7
 800201c:	d004      	beq.n	8002028 <HAL_GPIO_Init+0x108>
 800201e:	4a1d      	ldr	r2, [pc, #116]	@ (8002094 <HAL_GPIO_Init+0x174>)
 8002020:	1882      	adds	r2, r0, r2
 8002022:	1e57      	subs	r7, r2, #1
 8002024:	41ba      	sbcs	r2, r7
 8002026:	3204      	adds	r2, #4
 8002028:	40aa      	lsls	r2, r5
 800202a:	4667      	mov	r7, ip
 800202c:	4332      	orrs	r2, r6
 800202e:	60a2      	str	r2, [r4, #8]
 8002030:	4a19      	ldr	r2, [pc, #100]	@ (8002098 <HAL_GPIO_Init+0x178>)
 8002032:	9c00      	ldr	r4, [sp, #0]
 8002034:	6896      	ldr	r6, [r2, #8]
 8002036:	9d00      	ldr	r5, [sp, #0]
 8002038:	43e4      	mvns	r4, r4
 800203a:	4335      	orrs	r5, r6
 800203c:	02ff      	lsls	r7, r7, #11
 800203e:	d401      	bmi.n	8002044 <HAL_GPIO_Init+0x124>
 8002040:	0035      	movs	r5, r6
 8002042:	4025      	ands	r5, r4
 8002044:	4667      	mov	r7, ip
 8002046:	6095      	str	r5, [r2, #8]
 8002048:	68d6      	ldr	r6, [r2, #12]
 800204a:	9d00      	ldr	r5, [sp, #0]
 800204c:	4335      	orrs	r5, r6
 800204e:	02bf      	lsls	r7, r7, #10
 8002050:	d401      	bmi.n	8002056 <HAL_GPIO_Init+0x136>
 8002052:	0035      	movs	r5, r6
 8002054:	4025      	ands	r5, r4
 8002056:	4667      	mov	r7, ip
 8002058:	60d5      	str	r5, [r2, #12]
 800205a:	6856      	ldr	r6, [r2, #4]
 800205c:	9d00      	ldr	r5, [sp, #0]
 800205e:	4335      	orrs	r5, r6
 8002060:	03bf      	lsls	r7, r7, #14
 8002062:	d401      	bmi.n	8002068 <HAL_GPIO_Init+0x148>
 8002064:	0035      	movs	r5, r6
 8002066:	4025      	ands	r5, r4
 8002068:	4667      	mov	r7, ip
 800206a:	6055      	str	r5, [r2, #4]
 800206c:	6815      	ldr	r5, [r2, #0]
 800206e:	9e00      	ldr	r6, [sp, #0]
 8002070:	432e      	orrs	r6, r5
 8002072:	03ff      	lsls	r7, r7, #15
 8002074:	d401      	bmi.n	800207a <HAL_GPIO_Init+0x15a>
 8002076:	4025      	ands	r5, r4
 8002078:	002e      	movs	r6, r5
 800207a:	6016      	str	r6, [r2, #0]
 800207c:	3301      	adds	r3, #1
 800207e:	e752      	b.n	8001f26 <HAL_GPIO_Init+0x6>
 8002080:	40021000 	.word	0x40021000
 8002084:	40010000 	.word	0x40010000
 8002088:	48000400 	.word	0x48000400
 800208c:	48000800 	.word	0x48000800
 8002090:	48000c00 	.word	0x48000c00
 8002094:	b7fff000 	.word	0xb7fff000
 8002098:	40010400 	.word	0x40010400

0800209c <HAL_GPIO_WritePin>:
 800209c:	2a00      	cmp	r2, #0
 800209e:	d001      	beq.n	80020a4 <HAL_GPIO_WritePin+0x8>
 80020a0:	6181      	str	r1, [r0, #24]
 80020a2:	4770      	bx	lr
 80020a4:	6281      	str	r1, [r0, #40]	@ 0x28
 80020a6:	e7fc      	b.n	80020a2 <HAL_GPIO_WritePin+0x6>

080020a8 <HAL_RCC_OscConfig>:
 80020a8:	b5f0      	push	{r4, r5, r6, r7, lr}
 80020aa:	0004      	movs	r4, r0
 80020ac:	b085      	sub	sp, #20
 80020ae:	2800      	cmp	r0, #0
 80020b0:	d102      	bne.n	80020b8 <HAL_RCC_OscConfig+0x10>
 80020b2:	2001      	movs	r0, #1
 80020b4:	b005      	add	sp, #20
 80020b6:	bdf0      	pop	{r4, r5, r6, r7, pc}
 80020b8:	6803      	ldr	r3, [r0, #0]
 80020ba:	07db      	lsls	r3, r3, #31
 80020bc:	d433      	bmi.n	8002126 <HAL_RCC_OscConfig+0x7e>
 80020be:	6823      	ldr	r3, [r4, #0]
 80020c0:	079b      	lsls	r3, r3, #30
 80020c2:	d500      	bpl.n	80020c6 <HAL_RCC_OscConfig+0x1e>
 80020c4:	e087      	b.n	80021d6 <HAL_RCC_OscConfig+0x12e>
 80020c6:	6823      	ldr	r3, [r4, #0]
 80020c8:	071b      	lsls	r3, r3, #28
 80020ca:	d500      	bpl.n	80020ce <HAL_RCC_OscConfig+0x26>
 80020cc:	e0c8      	b.n	8002260 <HAL_RCC_OscConfig+0x1b8>
 80020ce:	6823      	ldr	r3, [r4, #0]
 80020d0:	075b      	lsls	r3, r3, #29
 80020d2:	d500      	bpl.n	80020d6 <HAL_RCC_OscConfig+0x2e>
 80020d4:	e0eb      	b.n	80022ae <HAL_RCC_OscConfig+0x206>
 80020d6:	6823      	ldr	r3, [r4, #0]
 80020d8:	06db      	lsls	r3, r3, #27
 80020da:	d51a      	bpl.n	8002112 <HAL_RCC_OscConfig+0x6a>
 80020dc:	6962      	ldr	r2, [r4, #20]
 80020de:	2304      	movs	r3, #4
 80020e0:	4db9      	ldr	r5, [pc, #740]	@ (80023c8 <HAL_RCC_OscConfig+0x320>)
 80020e2:	2a01      	cmp	r2, #1
 80020e4:	d000      	beq.n	80020e8 <HAL_RCC_OscConfig+0x40>
 80020e6:	e154      	b.n	8002392 <HAL_RCC_OscConfig+0x2ea>
 80020e8:	6b69      	ldr	r1, [r5, #52]	@ 0x34
 80020ea:	2702      	movs	r7, #2
 80020ec:	430b      	orrs	r3, r1
 80020ee:	636b      	str	r3, [r5, #52]	@ 0x34
 80020f0:	6b6b      	ldr	r3, [r5, #52]	@ 0x34
 80020f2:	431a      	orrs	r2, r3
 80020f4:	636a      	str	r2, [r5, #52]	@ 0x34
 80020f6:	f7ff fcb1 	bl	8001a5c <HAL_GetTick>
 80020fa:	0006      	movs	r6, r0
 80020fc:	6b6b      	ldr	r3, [r5, #52]	@ 0x34
 80020fe:	423b      	tst	r3, r7
 8002100:	d100      	bne.n	8002104 <HAL_RCC_OscConfig+0x5c>
 8002102:	e13f      	b.n	8002384 <HAL_RCC_OscConfig+0x2dc>
 8002104:	21f8      	movs	r1, #248	@ 0xf8
 8002106:	6b6a      	ldr	r2, [r5, #52]	@ 0x34
 8002108:	69a3      	ldr	r3, [r4, #24]
 800210a:	438a      	bics	r2, r1
 800210c:	00db      	lsls	r3, r3, #3
 800210e:	4313      	orrs	r3, r2
 8002110:	636b      	str	r3, [r5, #52]	@ 0x34
 8002112:	6823      	ldr	r3, [r4, #0]
 8002114:	069b      	lsls	r3, r3, #26
 8002116:	d500      	bpl.n	800211a <HAL_RCC_OscConfig+0x72>
 8002118:	e162      	b.n	80023e0 <HAL_RCC_OscConfig+0x338>
 800211a:	6a63      	ldr	r3, [r4, #36]	@ 0x24
 800211c:	2b00      	cmp	r3, #0
 800211e:	d000      	beq.n	8002122 <HAL_RCC_OscConfig+0x7a>
 8002120:	e1a1      	b.n	8002466 <HAL_RCC_OscConfig+0x3be>
 8002122:	2000      	movs	r0, #0
 8002124:	e7c6      	b.n	80020b4 <HAL_RCC_OscConfig+0xc>
 8002126:	220c      	movs	r2, #12
 8002128:	4da7      	ldr	r5, [pc, #668]	@ (80023c8 <HAL_RCC_OscConfig+0x320>)
 800212a:	686b      	ldr	r3, [r5, #4]
 800212c:	4013      	ands	r3, r2
 800212e:	2b04      	cmp	r3, #4
 8002130:	d00b      	beq.n	800214a <HAL_RCC_OscConfig+0xa2>
 8002132:	686b      	ldr	r3, [r5, #4]
 8002134:	4013      	ands	r3, r2
 8002136:	2b08      	cmp	r3, #8
 8002138:	d10e      	bne.n	8002158 <HAL_RCC_OscConfig+0xb0>
 800213a:	22c0      	movs	r2, #192	@ 0xc0
 800213c:	686b      	ldr	r3, [r5, #4]
 800213e:	0252      	lsls	r2, r2, #9
 8002140:	4013      	ands	r3, r2
 8002142:	2280      	movs	r2, #128	@ 0x80
 8002144:	0252      	lsls	r2, r2, #9
 8002146:	4293      	cmp	r3, r2
 8002148:	d106      	bne.n	8002158 <HAL_RCC_OscConfig+0xb0>
 800214a:	682b      	ldr	r3, [r5, #0]
 800214c:	039b      	lsls	r3, r3, #14
 800214e:	d5b6      	bpl.n	80020be <HAL_RCC_OscConfig+0x16>
 8002150:	6863      	ldr	r3, [r4, #4]
 8002152:	2b00      	cmp	r3, #0
 8002154:	d1b3      	bne.n	80020be <HAL_RCC_OscConfig+0x16>
 8002156:	e7ac      	b.n	80020b2 <HAL_RCC_OscConfig+0xa>
 8002158:	6863      	ldr	r3, [r4, #4]
 800215a:	2b01      	cmp	r3, #1
 800215c:	d113      	bne.n	8002186 <HAL_RCC_OscConfig+0xde>
 800215e:	2380      	movs	r3, #128	@ 0x80
 8002160:	682a      	ldr	r2, [r5, #0]
 8002162:	025b      	lsls	r3, r3, #9
 8002164:	4313      	orrs	r3, r2
 8002166:	602b      	str	r3, [r5, #0]
 8002168:	f7ff fc78 	bl	8001a5c <HAL_GetTick>
 800216c:	2780      	movs	r7, #128	@ 0x80
 800216e:	0006      	movs	r6, r0
 8002170:	02bf      	lsls	r7, r7, #10
 8002172:	682b      	ldr	r3, [r5, #0]
 8002174:	423b      	tst	r3, r7
 8002176:	d1a2      	bne.n	80020be <HAL_RCC_OscConfig+0x16>
 8002178:	f7ff fc70 	bl	8001a5c <HAL_GetTick>
 800217c:	1b80      	subs	r0, r0, r6
 800217e:	2864      	cmp	r0, #100	@ 0x64
 8002180:	d9f7      	bls.n	8002172 <HAL_RCC_OscConfig+0xca>
 8002182:	2003      	movs	r0, #3
 8002184:	e796      	b.n	80020b4 <HAL_RCC_OscConfig+0xc>
 8002186:	2b00      	cmp	r3, #0
 8002188:	d115      	bne.n	80021b6 <HAL_RCC_OscConfig+0x10e>
 800218a:	682b      	ldr	r3, [r5, #0]
 800218c:	4a8f      	ldr	r2, [pc, #572]	@ (80023cc <HAL_RCC_OscConfig+0x324>)
 800218e:	2780      	movs	r7, #128	@ 0x80
 8002190:	4013      	ands	r3, r2
 8002192:	602b      	str	r3, [r5, #0]
 8002194:	682b      	ldr	r3, [r5, #0]
 8002196:	4a8e      	ldr	r2, [pc, #568]	@ (80023d0 <HAL_RCC_OscConfig+0x328>)
 8002198:	02bf      	lsls	r7, r7, #10
 800219a:	4013      	ands	r3, r2
 800219c:	602b      	str	r3, [r5, #0]
 800219e:	f7ff fc5d 	bl	8001a5c <HAL_GetTick>
 80021a2:	0006      	movs	r6, r0
 80021a4:	682b      	ldr	r3, [r5, #0]
 80021a6:	423b      	tst	r3, r7
 80021a8:	d089      	beq.n	80020be <HAL_RCC_OscConfig+0x16>
 80021aa:	f7ff fc57 	bl	8001a5c <HAL_GetTick>
 80021ae:	1b80      	subs	r0, r0, r6
 80021b0:	2864      	cmp	r0, #100	@ 0x64
 80021b2:	d9f7      	bls.n	80021a4 <HAL_RCC_OscConfig+0xfc>
 80021b4:	e7e5      	b.n	8002182 <HAL_RCC_OscConfig+0xda>
 80021b6:	2b05      	cmp	r3, #5
 80021b8:	d105      	bne.n	80021c6 <HAL_RCC_OscConfig+0x11e>
 80021ba:	2380      	movs	r3, #128	@ 0x80
 80021bc:	682a      	ldr	r2, [r5, #0]
 80021be:	02db      	lsls	r3, r3, #11
 80021c0:	4313      	orrs	r3, r2
 80021c2:	602b      	str	r3, [r5, #0]
 80021c4:	e7cb      	b.n	800215e <HAL_RCC_OscConfig+0xb6>
 80021c6:	682b      	ldr	r3, [r5, #0]
 80021c8:	4a80      	ldr	r2, [pc, #512]	@ (80023cc <HAL_RCC_OscConfig+0x324>)
 80021ca:	4013      	ands	r3, r2
 80021cc:	602b      	str	r3, [r5, #0]
 80021ce:	682b      	ldr	r3, [r5, #0]
 80021d0:	4a7f      	ldr	r2, [pc, #508]	@ (80023d0 <HAL_RCC_OscConfig+0x328>)
 80021d2:	4013      	ands	r3, r2
 80021d4:	e7c7      	b.n	8002166 <HAL_RCC_OscConfig+0xbe>
 80021d6:	220c      	movs	r2, #12
 80021d8:	4d7b      	ldr	r5, [pc, #492]	@ (80023c8 <HAL_RCC_OscConfig+0x320>)
 80021da:	686b      	ldr	r3, [r5, #4]
 80021dc:	4213      	tst	r3, r2
 80021de:	d00b      	beq.n	80021f8 <HAL_RCC_OscConfig+0x150>
 80021e0:	686b      	ldr	r3, [r5, #4]
 80021e2:	4013      	ands	r3, r2
 80021e4:	2b08      	cmp	r3, #8
 80021e6:	d116      	bne.n	8002216 <HAL_RCC_OscConfig+0x16e>
 80021e8:	22c0      	movs	r2, #192	@ 0xc0
 80021ea:	686b      	ldr	r3, [r5, #4]
 80021ec:	0252      	lsls	r2, r2, #9
 80021ee:	4013      	ands	r3, r2
 80021f0:	2280      	movs	r2, #128	@ 0x80
 80021f2:	0212      	lsls	r2, r2, #8
 80021f4:	4293      	cmp	r3, r2
 80021f6:	d10e      	bne.n	8002216 <HAL_RCC_OscConfig+0x16e>
 80021f8:	682b      	ldr	r3, [r5, #0]
 80021fa:	079b      	lsls	r3, r3, #30
 80021fc:	d503      	bpl.n	8002206 <HAL_RCC_OscConfig+0x15e>
 80021fe:	68e3      	ldr	r3, [r4, #12]
 8002200:	2b01      	cmp	r3, #1
 8002202:	d000      	beq.n	8002206 <HAL_RCC_OscConfig+0x15e>
 8002204:	e755      	b.n	80020b2 <HAL_RCC_OscConfig+0xa>
 8002206:	21f8      	movs	r1, #248	@ 0xf8
 8002208:	682a      	ldr	r2, [r5, #0]
 800220a:	6923      	ldr	r3, [r4, #16]
 800220c:	438a      	bics	r2, r1
 800220e:	00db      	lsls	r3, r3, #3
 8002210:	4313      	orrs	r3, r2
 8002212:	602b      	str	r3, [r5, #0]
 8002214:	e757      	b.n	80020c6 <HAL_RCC_OscConfig+0x1e>
 8002216:	68e2      	ldr	r2, [r4, #12]
 8002218:	2301      	movs	r3, #1
 800221a:	2a00      	cmp	r2, #0
 800221c:	d00f      	beq.n	800223e <HAL_RCC_OscConfig+0x196>
 800221e:	682a      	ldr	r2, [r5, #0]
 8002220:	2702      	movs	r7, #2
 8002222:	4313      	orrs	r3, r2
 8002224:	602b      	str	r3, [r5, #0]
 8002226:	f7ff fc19 	bl	8001a5c <HAL_GetTick>
 800222a:	0006      	movs	r6, r0
 800222c:	682b      	ldr	r3, [r5, #0]
 800222e:	423b      	tst	r3, r7
 8002230:	d1e9      	bne.n	8002206 <HAL_RCC_OscConfig+0x15e>
 8002232:	f7ff fc13 	bl	8001a5c <HAL_GetTick>
 8002236:	1b80      	subs	r0, r0, r6
 8002238:	2802      	cmp	r0, #2
 800223a:	d9f7      	bls.n	800222c <HAL_RCC_OscConfig+0x184>
 800223c:	e7a1      	b.n	8002182 <HAL_RCC_OscConfig+0xda>
 800223e:	682a      	ldr	r2, [r5, #0]
 8002240:	2702      	movs	r7, #2
 8002242:	439a      	bics	r2, r3
 8002244:	602a      	str	r2, [r5, #0]
 8002246:	f7ff fc09 	bl	8001a5c <HAL_GetTick>
 800224a:	0006      	movs	r6, r0
 800224c:	682b      	ldr	r3, [r5, #0]
 800224e:	423b      	tst	r3, r7
 8002250:	d100      	bne.n	8002254 <HAL_RCC_OscConfig+0x1ac>
 8002252:	e738      	b.n	80020c6 <HAL_RCC_OscConfig+0x1e>
 8002254:	f7ff fc02 	bl	8001a5c <HAL_GetTick>
 8002258:	1b80      	subs	r0, r0, r6
 800225a:	2802      	cmp	r0, #2
 800225c:	d9f6      	bls.n	800224c <HAL_RCC_OscConfig+0x1a4>
 800225e:	e790      	b.n	8002182 <HAL_RCC_OscConfig+0xda>
 8002260:	69e2      	ldr	r2, [r4, #28]
 8002262:	2301      	movs	r3, #1
 8002264:	4d58      	ldr	r5, [pc, #352]	@ (80023c8 <HAL_RCC_OscConfig+0x320>)
 8002266:	2a00      	cmp	r2, #0
 8002268:	d010      	beq.n	800228c <HAL_RCC_OscConfig+0x1e4>
 800226a:	6a6a      	ldr	r2, [r5, #36]	@ 0x24
 800226c:	2702      	movs	r7, #2
 800226e:	4313      	orrs	r3, r2
 8002270:	626b      	str	r3, [r5, #36]	@ 0x24
 8002272:	f7ff fbf3 	bl	8001a5c <HAL_GetTick>
 8002276:	0006      	movs	r6, r0
 8002278:	6a6b      	ldr	r3, [r5, #36]	@ 0x24
 800227a:	423b      	tst	r3, r7
 800227c:	d000      	beq.n	8002280 <HAL_RCC_OscConfig+0x1d8>
 800227e:	e726      	b.n	80020ce <HAL_RCC_OscConfig+0x26>
 8002280:	f7ff fbec 	bl	8001a5c <HAL_GetTick>
 8002284:	1b80      	subs	r0, r0, r6
 8002286:	2802      	cmp	r0, #2
 8002288:	d9f6      	bls.n	8002278 <HAL_RCC_OscConfig+0x1d0>
 800228a:	e77a      	b.n	8002182 <HAL_RCC_OscConfig+0xda>
 800228c:	6a6a      	ldr	r2, [r5, #36]	@ 0x24
 800228e:	2702      	movs	r7, #2
 8002290:	439a      	bics	r2, r3
 8002292:	626a      	str	r2, [r5, #36]	@ 0x24
 8002294:	f7ff fbe2 	bl	8001a5c <HAL_GetTick>
 8002298:	0006      	movs	r6, r0
 800229a:	6a6b      	ldr	r3, [r5, #36]	@ 0x24
 800229c:	423b      	tst	r3, r7
 800229e:	d100      	bne.n	80022a2 <HAL_RCC_OscConfig+0x1fa>
 80022a0:	e715      	b.n	80020ce <HAL_RCC_OscConfig+0x26>
 80022a2:	f7ff fbdb 	bl	8001a5c <HAL_GetTick>
 80022a6:	1b80      	subs	r0, r0, r6
 80022a8:	2802      	cmp	r0, #2
 80022aa:	d9f6      	bls.n	800229a <HAL_RCC_OscConfig+0x1f2>
 80022ac:	e769      	b.n	8002182 <HAL_RCC_OscConfig+0xda>
 80022ae:	2280      	movs	r2, #128	@ 0x80
 80022b0:	2100      	movs	r1, #0
 80022b2:	4d45      	ldr	r5, [pc, #276]	@ (80023c8 <HAL_RCC_OscConfig+0x320>)
 80022b4:	0552      	lsls	r2, r2, #21
 80022b6:	69eb      	ldr	r3, [r5, #28]
 80022b8:	9100      	str	r1, [sp, #0]
 80022ba:	4213      	tst	r3, r2
 80022bc:	d108      	bne.n	80022d0 <HAL_RCC_OscConfig+0x228>
 80022be:	69eb      	ldr	r3, [r5, #28]
 80022c0:	4313      	orrs	r3, r2
 80022c2:	61eb      	str	r3, [r5, #28]
 80022c4:	69eb      	ldr	r3, [r5, #28]
 80022c6:	4013      	ands	r3, r2
 80022c8:	9303      	str	r3, [sp, #12]
 80022ca:	9b03      	ldr	r3, [sp, #12]
 80022cc:	2301      	movs	r3, #1
 80022ce:	9300      	str	r3, [sp, #0]
 80022d0:	2780      	movs	r7, #128	@ 0x80
 80022d2:	4e40      	ldr	r6, [pc, #256]	@ (80023d4 <HAL_RCC_OscConfig+0x32c>)
 80022d4:	007f      	lsls	r7, r7, #1
 80022d6:	6833      	ldr	r3, [r6, #0]
 80022d8:	423b      	tst	r3, r7
 80022da:	d015      	beq.n	8002308 <HAL_RCC_OscConfig+0x260>
 80022dc:	68a3      	ldr	r3, [r4, #8]
 80022de:	2b01      	cmp	r3, #1
 80022e0:	d122      	bne.n	8002328 <HAL_RCC_OscConfig+0x280>
 80022e2:	6a2a      	ldr	r2, [r5, #32]
 80022e4:	4313      	orrs	r3, r2
 80022e6:	622b      	str	r3, [r5, #32]
 80022e8:	f7ff fbb8 	bl	8001a5c <HAL_GetTick>
 80022ec:	2702      	movs	r7, #2
 80022ee:	0006      	movs	r6, r0
 80022f0:	6a2b      	ldr	r3, [r5, #32]
 80022f2:	423b      	tst	r3, r7
 80022f4:	d03f      	beq.n	8002376 <HAL_RCC_OscConfig+0x2ce>
 80022f6:	9b00      	ldr	r3, [sp, #0]
 80022f8:	2b01      	cmp	r3, #1
 80022fa:	d000      	beq.n	80022fe <HAL_RCC_OscConfig+0x256>
 80022fc:	e6eb      	b.n	80020d6 <HAL_RCC_OscConfig+0x2e>
 80022fe:	69eb      	ldr	r3, [r5, #28]
 8002300:	4a35      	ldr	r2, [pc, #212]	@ (80023d8 <HAL_RCC_OscConfig+0x330>)
 8002302:	4013      	ands	r3, r2
 8002304:	61eb      	str	r3, [r5, #28]
 8002306:	e6e6      	b.n	80020d6 <HAL_RCC_OscConfig+0x2e>
 8002308:	6833      	ldr	r3, [r6, #0]
 800230a:	433b      	orrs	r3, r7
 800230c:	6033      	str	r3, [r6, #0]
 800230e:	f7ff fba5 	bl	8001a5c <HAL_GetTick>
 8002312:	9001      	str	r0, [sp, #4]
 8002314:	6833      	ldr	r3, [r6, #0]
 8002316:	423b      	tst	r3, r7
 8002318:	d1e0      	bne.n	80022dc <HAL_RCC_OscConfig+0x234>
 800231a:	f7ff fb9f 	bl	8001a5c <HAL_GetTick>
 800231e:	9b01      	ldr	r3, [sp, #4]
 8002320:	1ac0      	subs	r0, r0, r3
 8002322:	2864      	cmp	r0, #100	@ 0x64
 8002324:	d9f6      	bls.n	8002314 <HAL_RCC_OscConfig+0x26c>
 8002326:	e72c      	b.n	8002182 <HAL_RCC_OscConfig+0xda>
 8002328:	2201      	movs	r2, #1
 800232a:	2b00      	cmp	r3, #0
 800232c:	d114      	bne.n	8002358 <HAL_RCC_OscConfig+0x2b0>
 800232e:	6a2b      	ldr	r3, [r5, #32]
 8002330:	2702      	movs	r7, #2
 8002332:	4393      	bics	r3, r2
 8002334:	622b      	str	r3, [r5, #32]
 8002336:	6a2b      	ldr	r3, [r5, #32]
 8002338:	3203      	adds	r2, #3
 800233a:	4393      	bics	r3, r2
 800233c:	622b      	str	r3, [r5, #32]
 800233e:	f7ff fb8d 	bl	8001a5c <HAL_GetTick>
 8002342:	0006      	movs	r6, r0
 8002344:	6a2b      	ldr	r3, [r5, #32]
 8002346:	423b      	tst	r3, r7
 8002348:	d0d5      	beq.n	80022f6 <HAL_RCC_OscConfig+0x24e>
 800234a:	f7ff fb87 	bl	8001a5c <HAL_GetTick>
 800234e:	4b23      	ldr	r3, [pc, #140]	@ (80023dc <HAL_RCC_OscConfig+0x334>)
 8002350:	1b80      	subs	r0, r0, r6
 8002352:	4298      	cmp	r0, r3
 8002354:	d9f6      	bls.n	8002344 <HAL_RCC_OscConfig+0x29c>
 8002356:	e714      	b.n	8002182 <HAL_RCC_OscConfig+0xda>
 8002358:	2b05      	cmp	r3, #5
 800235a:	d105      	bne.n	8002368 <HAL_RCC_OscConfig+0x2c0>
 800235c:	6a29      	ldr	r1, [r5, #32]
 800235e:	3b01      	subs	r3, #1
 8002360:	430b      	orrs	r3, r1
 8002362:	622b      	str	r3, [r5, #32]
 8002364:	6a2b      	ldr	r3, [r5, #32]
 8002366:	e7bd      	b.n	80022e4 <HAL_RCC_OscConfig+0x23c>
 8002368:	6a2b      	ldr	r3, [r5, #32]
 800236a:	4393      	bics	r3, r2
 800236c:	2204      	movs	r2, #4
 800236e:	622b      	str	r3, [r5, #32]
 8002370:	6a2b      	ldr	r3, [r5, #32]
 8002372:	4393      	bics	r3, r2
 8002374:	e7b7      	b.n	80022e6 <HAL_RCC_OscConfig+0x23e>
 8002376:	f7ff fb71 	bl	8001a5c <HAL_GetTick>
 800237a:	4b18      	ldr	r3, [pc, #96]	@ (80023dc <HAL_RCC_OscConfig+0x334>)
 800237c:	1b80      	subs	r0, r0, r6
 800237e:	4298      	cmp	r0, r3
 8002380:	d9b6      	bls.n	80022f0 <HAL_RCC_OscConfig+0x248>
 8002382:	e6fe      	b.n	8002182 <HAL_RCC_OscConfig+0xda>
 8002384:	f7ff fb6a 	bl	8001a5c <HAL_GetTick>
 8002388:	1b80      	subs	r0, r0, r6
 800238a:	2802      	cmp	r0, #2
 800238c:	d800      	bhi.n	8002390 <HAL_RCC_OscConfig+0x2e8>
 800238e:	e6b5      	b.n	80020fc <HAL_RCC_OscConfig+0x54>
 8002390:	e6f7      	b.n	8002182 <HAL_RCC_OscConfig+0xda>
 8002392:	3205      	adds	r2, #5
 8002394:	d103      	bne.n	800239e <HAL_RCC_OscConfig+0x2f6>
 8002396:	6b6a      	ldr	r2, [r5, #52]	@ 0x34
 8002398:	439a      	bics	r2, r3
 800239a:	636a      	str	r2, [r5, #52]	@ 0x34
 800239c:	e6b2      	b.n	8002104 <HAL_RCC_OscConfig+0x5c>
 800239e:	6b6a      	ldr	r2, [r5, #52]	@ 0x34
 80023a0:	2702      	movs	r7, #2
 80023a2:	4313      	orrs	r3, r2
 80023a4:	2201      	movs	r2, #1
 80023a6:	636b      	str	r3, [r5, #52]	@ 0x34
 80023a8:	6b6b      	ldr	r3, [r5, #52]	@ 0x34
 80023aa:	4393      	bics	r3, r2
 80023ac:	636b      	str	r3, [r5, #52]	@ 0x34
 80023ae:	f7ff fb55 	bl	8001a5c <HAL_GetTick>
 80023b2:	0006      	movs	r6, r0
 80023b4:	6b6b      	ldr	r3, [r5, #52]	@ 0x34
 80023b6:	423b      	tst	r3, r7
 80023b8:	d100      	bne.n	80023bc <HAL_RCC_OscConfig+0x314>
 80023ba:	e6aa      	b.n	8002112 <HAL_RCC_OscConfig+0x6a>
 80023bc:	f7ff fb4e 	bl	8001a5c <HAL_GetTick>
 80023c0:	1b80      	subs	r0, r0, r6
 80023c2:	2802      	cmp	r0, #2
 80023c4:	d9f6      	bls.n	80023b4 <HAL_RCC_OscConfig+0x30c>
 80023c6:	e6dc      	b.n	8002182 <HAL_RCC_OscConfig+0xda>
 80023c8:	40021000 	.word	0x40021000
 80023cc:	fffeffff 	.word	0xfffeffff
 80023d0:	fffbffff 	.word	0xfffbffff
 80023d4:	40007000 	.word	0x40007000
 80023d8:	efffffff 	.word	0xefffffff
 80023dc:	00001388 	.word	0x00001388
 80023e0:	220c      	movs	r2, #12
 80023e2:	4d55      	ldr	r5, [pc, #340]	@ (8002538 <HAL_RCC_OscConfig+0x490>)
 80023e4:	686b      	ldr	r3, [r5, #4]
 80023e6:	4013      	ands	r3, r2
 80023e8:	4293      	cmp	r3, r2
 80023ea:	d009      	beq.n	8002400 <HAL_RCC_OscConfig+0x358>
 80023ec:	686b      	ldr	r3, [r5, #4]
 80023ee:	4013      	ands	r3, r2
 80023f0:	2b08      	cmp	r3, #8
 80023f2:	d10e      	bne.n	8002412 <HAL_RCC_OscConfig+0x36a>
 80023f4:	22c0      	movs	r2, #192	@ 0xc0
 80023f6:	686b      	ldr	r3, [r5, #4]
 80023f8:	0252      	lsls	r2, r2, #9
 80023fa:	4013      	ands	r3, r2
 80023fc:	4293      	cmp	r3, r2
 80023fe:	d108      	bne.n	8002412 <HAL_RCC_OscConfig+0x36a>
 8002400:	6b6b      	ldr	r3, [r5, #52]	@ 0x34
 8002402:	039b      	lsls	r3, r3, #14
 8002404:	d400      	bmi.n	8002408 <HAL_RCC_OscConfig+0x360>
 8002406:	e688      	b.n	800211a <HAL_RCC_OscConfig+0x72>
 8002408:	6a23      	ldr	r3, [r4, #32]
 800240a:	2b01      	cmp	r3, #1
 800240c:	d000      	beq.n	8002410 <HAL_RCC_OscConfig+0x368>
 800240e:	e650      	b.n	80020b2 <HAL_RCC_OscConfig+0xa>
 8002410:	e683      	b.n	800211a <HAL_RCC_OscConfig+0x72>
 8002412:	6a23      	ldr	r3, [r4, #32]
 8002414:	2b00      	cmp	r3, #0
 8002416:	d013      	beq.n	8002440 <HAL_RCC_OscConfig+0x398>
 8002418:	2380      	movs	r3, #128	@ 0x80
 800241a:	6b6a      	ldr	r2, [r5, #52]	@ 0x34
 800241c:	025b      	lsls	r3, r3, #9
 800241e:	4313      	orrs	r3, r2
 8002420:	636b      	str	r3, [r5, #52]	@ 0x34
 8002422:	f7ff fb1b 	bl	8001a5c <HAL_GetTick>
 8002426:	2780      	movs	r7, #128	@ 0x80
 8002428:	0006      	movs	r6, r0
 800242a:	02bf      	lsls	r7, r7, #10
 800242c:	6b6b      	ldr	r3, [r5, #52]	@ 0x34
 800242e:	423b      	tst	r3, r7
 8002430:	d000      	beq.n	8002434 <HAL_RCC_OscConfig+0x38c>
 8002432:	e672      	b.n	800211a <HAL_RCC_OscConfig+0x72>
 8002434:	f7ff fb12 	bl	8001a5c <HAL_GetTick>
 8002438:	1b80      	subs	r0, r0, r6
 800243a:	2802      	cmp	r0, #2
 800243c:	d9f6      	bls.n	800242c <HAL_RCC_OscConfig+0x384>
 800243e:	e6a0      	b.n	8002182 <HAL_RCC_OscConfig+0xda>
 8002440:	6b6b      	ldr	r3, [r5, #52]	@ 0x34
 8002442:	4a3e      	ldr	r2, [pc, #248]	@ (800253c <HAL_RCC_OscConfig+0x494>)
 8002444:	2780      	movs	r7, #128	@ 0x80
 8002446:	4013      	ands	r3, r2
 8002448:	636b      	str	r3, [r5, #52]	@ 0x34
 800244a:	f7ff fb07 	bl	8001a5c <HAL_GetTick>
 800244e:	0006      	movs	r6, r0
 8002450:	02bf      	lsls	r7, r7, #10
 8002452:	6b6b      	ldr	r3, [r5, #52]	@ 0x34
 8002454:	423b      	tst	r3, r7
 8002456:	d100      	bne.n	800245a <HAL_RCC_OscConfig+0x3b2>
 8002458:	e65f      	b.n	800211a <HAL_RCC_OscConfig+0x72>
 800245a:	f7ff faff 	bl	8001a5c <HAL_GetTick>
 800245e:	1b80      	subs	r0, r0, r6
 8002460:	2802      	cmp	r0, #2
 8002462:	d9f6      	bls.n	8002452 <HAL_RCC_OscConfig+0x3aa>
 8002464:	e68d      	b.n	8002182 <HAL_RCC_OscConfig+0xda>
 8002466:	210c      	movs	r1, #12
 8002468:	4d33      	ldr	r5, [pc, #204]	@ (8002538 <HAL_RCC_OscConfig+0x490>)
 800246a:	686a      	ldr	r2, [r5, #4]
 800246c:	400a      	ands	r2, r1
 800246e:	2a08      	cmp	r2, #8
 8002470:	d047      	beq.n	8002502 <HAL_RCC_OscConfig+0x45a>
 8002472:	4a33      	ldr	r2, [pc, #204]	@ (8002540 <HAL_RCC_OscConfig+0x498>)
 8002474:	2b02      	cmp	r3, #2
 8002476:	d132      	bne.n	80024de <HAL_RCC_OscConfig+0x436>
 8002478:	682b      	ldr	r3, [r5, #0]
 800247a:	2780      	movs	r7, #128	@ 0x80
 800247c:	4013      	ands	r3, r2
 800247e:	602b      	str	r3, [r5, #0]
 8002480:	f7ff faec 	bl	8001a5c <HAL_GetTick>
 8002484:	0006      	movs	r6, r0
 8002486:	04bf      	lsls	r7, r7, #18
 8002488:	682b      	ldr	r3, [r5, #0]
 800248a:	423b      	tst	r3, r7
 800248c:	d121      	bne.n	80024d2 <HAL_RCC_OscConfig+0x42a>
 800248e:	220f      	movs	r2, #15
 8002490:	6aeb      	ldr	r3, [r5, #44]	@ 0x2c
 8002492:	2680      	movs	r6, #128	@ 0x80
 8002494:	4393      	bics	r3, r2
 8002496:	6b22      	ldr	r2, [r4, #48]	@ 0x30
 8002498:	04b6      	lsls	r6, r6, #18
 800249a:	4313      	orrs	r3, r2
 800249c:	62eb      	str	r3, [r5, #44]	@ 0x2c
 800249e:	6aa1      	ldr	r1, [r4, #40]	@ 0x28
 80024a0:	6ae3      	ldr	r3, [r4, #44]	@ 0x2c
 80024a2:	686a      	ldr	r2, [r5, #4]
 80024a4:	430b      	orrs	r3, r1
 80024a6:	4927      	ldr	r1, [pc, #156]	@ (8002544 <HAL_RCC_OscConfig+0x49c>)
 80024a8:	400a      	ands	r2, r1
 80024aa:	4313      	orrs	r3, r2
 80024ac:	606b      	str	r3, [r5, #4]
 80024ae:	2380      	movs	r3, #128	@ 0x80
 80024b0:	682a      	ldr	r2, [r5, #0]
 80024b2:	045b      	lsls	r3, r3, #17
 80024b4:	4313      	orrs	r3, r2
 80024b6:	602b      	str	r3, [r5, #0]
 80024b8:	f7ff fad0 	bl	8001a5c <HAL_GetTick>
 80024bc:	0004      	movs	r4, r0
 80024be:	682b      	ldr	r3, [r5, #0]
 80024c0:	4233      	tst	r3, r6
 80024c2:	d000      	beq.n	80024c6 <HAL_RCC_OscConfig+0x41e>
 80024c4:	e62d      	b.n	8002122 <HAL_RCC_OscConfig+0x7a>
 80024c6:	f7ff fac9 	bl	8001a5c <HAL_GetTick>
 80024ca:	1b00      	subs	r0, r0, r4
 80024cc:	2802      	cmp	r0, #2
 80024ce:	d9f6      	bls.n	80024be <HAL_RCC_OscConfig+0x416>
 80024d0:	e657      	b.n	8002182 <HAL_RCC_OscConfig+0xda>
 80024d2:	f7ff fac3 	bl	8001a5c <HAL_GetTick>
 80024d6:	1b80      	subs	r0, r0, r6
 80024d8:	2802      	cmp	r0, #2
 80024da:	d9d5      	bls.n	8002488 <HAL_RCC_OscConfig+0x3e0>
 80024dc:	e651      	b.n	8002182 <HAL_RCC_OscConfig+0xda>
 80024de:	682b      	ldr	r3, [r5, #0]
 80024e0:	2680      	movs	r6, #128	@ 0x80
 80024e2:	4013      	ands	r3, r2
 80024e4:	602b      	str	r3, [r5, #0]
 80024e6:	f7ff fab9 	bl	8001a5c <HAL_GetTick>
 80024ea:	0004      	movs	r4, r0
 80024ec:	04b6      	lsls	r6, r6, #18
 80024ee:	682b      	ldr	r3, [r5, #0]
 80024f0:	4233      	tst	r3, r6
 80024f2:	d100      	bne.n	80024f6 <HAL_RCC_OscConfig+0x44e>
 80024f4:	e615      	b.n	8002122 <HAL_RCC_OscConfig+0x7a>
 80024f6:	f7ff fab1 	bl	8001a5c <HAL_GetTick>
 80024fa:	1b00      	subs	r0, r0, r4
 80024fc:	2802      	cmp	r0, #2
 80024fe:	d9f6      	bls.n	80024ee <HAL_RCC_OscConfig+0x446>
 8002500:	e63f      	b.n	8002182 <HAL_RCC_OscConfig+0xda>
 8002502:	2b01      	cmp	r3, #1
 8002504:	d100      	bne.n	8002508 <HAL_RCC_OscConfig+0x460>
 8002506:	e5d4      	b.n	80020b2 <HAL_RCC_OscConfig+0xa>
 8002508:	22c0      	movs	r2, #192	@ 0xc0
 800250a:	6868      	ldr	r0, [r5, #4]
 800250c:	6aa1      	ldr	r1, [r4, #40]	@ 0x28
 800250e:	0252      	lsls	r2, r2, #9
 8002510:	6aeb      	ldr	r3, [r5, #44]	@ 0x2c
 8002512:	4002      	ands	r2, r0
 8002514:	428a      	cmp	r2, r1
 8002516:	d000      	beq.n	800251a <HAL_RCC_OscConfig+0x472>
 8002518:	e5cb      	b.n	80020b2 <HAL_RCC_OscConfig+0xa>
 800251a:	220f      	movs	r2, #15
 800251c:	4013      	ands	r3, r2
 800251e:	6b22      	ldr	r2, [r4, #48]	@ 0x30
 8002520:	4293      	cmp	r3, r2
 8002522:	d000      	beq.n	8002526 <HAL_RCC_OscConfig+0x47e>
 8002524:	e5c5      	b.n	80020b2 <HAL_RCC_OscConfig+0xa>
 8002526:	23f0      	movs	r3, #240	@ 0xf0
 8002528:	039b      	lsls	r3, r3, #14
 800252a:	4018      	ands	r0, r3
 800252c:	6ae3      	ldr	r3, [r4, #44]	@ 0x2c
 800252e:	1ac0      	subs	r0, r0, r3
 8002530:	1e43      	subs	r3, r0, #1
 8002532:	4198      	sbcs	r0, r3
 8002534:	b2c0      	uxtb	r0, r0
 8002536:	e5bd      	b.n	80020b4 <HAL_RCC_OscConfig+0xc>
 8002538:	40021000 	.word	0x40021000
 800253c:	fffeffff 	.word	0xfffeffff
 8002540:	feffffff 	.word	0xfeffffff
 8002544:	ffc27fff 	.word	0xffc27fff

08002548 <HAL_RCC_GetSysClockFreq>:
 8002548:	200c      	movs	r0, #12
 800254a:	b570      	push	{r4, r5, r6, lr}
 800254c:	4d13      	ldr	r5, [pc, #76]	@ (800259c <HAL_RCC_GetSysClockFreq+0x54>)
 800254e:	686b      	ldr	r3, [r5, #4]
 8002550:	4018      	ands	r0, r3
 8002552:	2808      	cmp	r0, #8
 8002554:	d008      	beq.n	8002568 <HAL_RCC_GetSysClockFreq+0x20>
 8002556:	380c      	subs	r0, #12
 8002558:	4243      	negs	r3, r0
 800255a:	4158      	adcs	r0, r3
 800255c:	4b10      	ldr	r3, [pc, #64]	@ (80025a0 <HAL_RCC_GetSysClockFreq+0x58>)
 800255e:	4240      	negs	r0, r0
 8002560:	4018      	ands	r0, r3
 8002562:	4b10      	ldr	r3, [pc, #64]	@ (80025a4 <HAL_RCC_GetSysClockFreq+0x5c>)
 8002564:	18c0      	adds	r0, r0, r3
 8002566:	bd70      	pop	{r4, r5, r6, pc}
 8002568:	200f      	movs	r0, #15
 800256a:	490f      	ldr	r1, [pc, #60]	@ (80025a8 <HAL_RCC_GetSysClockFreq+0x60>)
 800256c:	0c9a      	lsrs	r2, r3, #18
 800256e:	4002      	ands	r2, r0
 8002570:	5c8c      	ldrb	r4, [r1, r2]
 8002572:	6aea      	ldr	r2, [r5, #44]	@ 0x2c
 8002574:	490d      	ldr	r1, [pc, #52]	@ (80025ac <HAL_RCC_GetSysClockFreq+0x64>)
 8002576:	4002      	ands	r2, r0
 8002578:	5c89      	ldrb	r1, [r1, r2]
 800257a:	22c0      	movs	r2, #192	@ 0xc0
 800257c:	2080      	movs	r0, #128	@ 0x80
 800257e:	0252      	lsls	r2, r2, #9
 8002580:	4013      	ands	r3, r2
 8002582:	0240      	lsls	r0, r0, #9
 8002584:	4283      	cmp	r3, r0
 8002586:	d101      	bne.n	800258c <HAL_RCC_GetSysClockFreq+0x44>
 8002588:	4806      	ldr	r0, [pc, #24]	@ (80025a4 <HAL_RCC_GetSysClockFreq+0x5c>)
 800258a:	e002      	b.n	8002592 <HAL_RCC_GetSysClockFreq+0x4a>
 800258c:	4293      	cmp	r3, r2
 800258e:	d1fb      	bne.n	8002588 <HAL_RCC_GetSysClockFreq+0x40>
 8002590:	4807      	ldr	r0, [pc, #28]	@ (80025b0 <HAL_RCC_GetSysClockFreq+0x68>)
 8002592:	f7fd fdc1 	bl	8000118 <__udivsi3>
 8002596:	4360      	muls	r0, r4
 8002598:	e7e5      	b.n	8002566 <HAL_RCC_GetSysClockFreq+0x1e>
 800259a:	46c0      	nop			@ (mov r8, r8)
 800259c:	40021000 	.word	0x40021000
 80025a0:	02625a00 	.word	0x02625a00
 80025a4:	007a1200 	.word	0x007a1200
 80025a8:	08002da4 	.word	0x08002da4
 80025ac:	08002d94 	.word	0x08002d94
 80025b0:	02dc6c00 	.word	0x02dc6c00

080025b4 <HAL_RCC_ClockConfig>:
 80025b4:	b5f7      	push	{r0, r1, r2, r4, r5, r6, r7, lr}
 80025b6:	0004      	movs	r4, r0
 80025b8:	000f      	movs	r7, r1
 80025ba:	2800      	cmp	r0, #0
 80025bc:	d101      	bne.n	80025c2 <HAL_RCC_ClockConfig+0xe>
 80025be:	2001      	movs	r0, #1
 80025c0:	bdfe      	pop	{r1, r2, r3, r4, r5, r6, r7, pc}
 80025c2:	2201      	movs	r2, #1
 80025c4:	4d3a      	ldr	r5, [pc, #232]	@ (80026b0 <HAL_RCC_ClockConfig+0xfc>)
 80025c6:	682b      	ldr	r3, [r5, #0]
 80025c8:	4013      	ands	r3, r2
 80025ca:	428b      	cmp	r3, r1
 80025cc:	d31c      	bcc.n	8002608 <HAL_RCC_ClockConfig+0x54>
 80025ce:	6822      	ldr	r2, [r4, #0]
 80025d0:	0793      	lsls	r3, r2, #30
 80025d2:	d422      	bmi.n	800261a <HAL_RCC_ClockConfig+0x66>
 80025d4:	07d2      	lsls	r2, r2, #31
 80025d6:	d42f      	bmi.n	8002638 <HAL_RCC_ClockConfig+0x84>
 80025d8:	2301      	movs	r3, #1
 80025da:	682a      	ldr	r2, [r5, #0]
 80025dc:	401a      	ands	r2, r3
 80025de:	42ba      	cmp	r2, r7
 80025e0:	d857      	bhi.n	8002692 <HAL_RCC_ClockConfig+0xde>
 80025e2:	6823      	ldr	r3, [r4, #0]
 80025e4:	4d33      	ldr	r5, [pc, #204]	@ (80026b4 <HAL_RCC_ClockConfig+0x100>)
 80025e6:	075b      	lsls	r3, r3, #29
 80025e8:	d45a      	bmi.n	80026a0 <HAL_RCC_ClockConfig+0xec>
 80025ea:	f7ff ffad 	bl	8002548 <HAL_RCC_GetSysClockFreq>
 80025ee:	686b      	ldr	r3, [r5, #4]
 80025f0:	4a31      	ldr	r2, [pc, #196]	@ (80026b8 <HAL_RCC_ClockConfig+0x104>)
 80025f2:	061b      	lsls	r3, r3, #24
 80025f4:	0f1b      	lsrs	r3, r3, #28
 80025f6:	5cd3      	ldrb	r3, [r2, r3]
 80025f8:	4930      	ldr	r1, [pc, #192]	@ (80026bc <HAL_RCC_ClockConfig+0x108>)
 80025fa:	40d8      	lsrs	r0, r3
 80025fc:	6008      	str	r0, [r1, #0]
 80025fe:	2000      	movs	r0, #0
 8002600:	f7ff f9ec 	bl	80019dc <HAL_InitTick>
 8002604:	2000      	movs	r0, #0
 8002606:	e7db      	b.n	80025c0 <HAL_RCC_ClockConfig+0xc>
 8002608:	682b      	ldr	r3, [r5, #0]
 800260a:	4393      	bics	r3, r2
 800260c:	430b      	orrs	r3, r1
 800260e:	602b      	str	r3, [r5, #0]
 8002610:	682b      	ldr	r3, [r5, #0]
 8002612:	4013      	ands	r3, r2
 8002614:	428b      	cmp	r3, r1
 8002616:	d1d2      	bne.n	80025be <HAL_RCC_ClockConfig+0xa>
 8002618:	e7d9      	b.n	80025ce <HAL_RCC_ClockConfig+0x1a>
 800261a:	4926      	ldr	r1, [pc, #152]	@ (80026b4 <HAL_RCC_ClockConfig+0x100>)
 800261c:	0753      	lsls	r3, r2, #29
 800261e:	d504      	bpl.n	800262a <HAL_RCC_ClockConfig+0x76>
 8002620:	23e0      	movs	r3, #224	@ 0xe0
 8002622:	6848      	ldr	r0, [r1, #4]
 8002624:	00db      	lsls	r3, r3, #3
 8002626:	4303      	orrs	r3, r0
 8002628:	604b      	str	r3, [r1, #4]
 800262a:	20f0      	movs	r0, #240	@ 0xf0
 800262c:	684b      	ldr	r3, [r1, #4]
 800262e:	4383      	bics	r3, r0
 8002630:	68a0      	ldr	r0, [r4, #8]
 8002632:	4303      	orrs	r3, r0
 8002634:	604b      	str	r3, [r1, #4]
 8002636:	e7cd      	b.n	80025d4 <HAL_RCC_ClockConfig+0x20>
 8002638:	6862      	ldr	r2, [r4, #4]
 800263a:	4e1e      	ldr	r6, [pc, #120]	@ (80026b4 <HAL_RCC_ClockConfig+0x100>)
 800263c:	2a01      	cmp	r2, #1
 800263e:	d103      	bne.n	8002648 <HAL_RCC_ClockConfig+0x94>
 8002640:	6833      	ldr	r3, [r6, #0]
 8002642:	039b      	lsls	r3, r3, #14
 8002644:	d405      	bmi.n	8002652 <HAL_RCC_ClockConfig+0x9e>
 8002646:	e7ba      	b.n	80025be <HAL_RCC_ClockConfig+0xa>
 8002648:	2a02      	cmp	r2, #2
 800264a:	d11a      	bne.n	8002682 <HAL_RCC_ClockConfig+0xce>
 800264c:	6833      	ldr	r3, [r6, #0]
 800264e:	019b      	lsls	r3, r3, #6
 8002650:	d5b5      	bpl.n	80025be <HAL_RCC_ClockConfig+0xa>
 8002652:	2103      	movs	r1, #3
 8002654:	6873      	ldr	r3, [r6, #4]
 8002656:	438b      	bics	r3, r1
 8002658:	4313      	orrs	r3, r2
 800265a:	6073      	str	r3, [r6, #4]
 800265c:	f7ff f9fe 	bl	8001a5c <HAL_GetTick>
 8002660:	9001      	str	r0, [sp, #4]
 8002662:	230c      	movs	r3, #12
 8002664:	6872      	ldr	r2, [r6, #4]
 8002666:	401a      	ands	r2, r3
 8002668:	6863      	ldr	r3, [r4, #4]
 800266a:	009b      	lsls	r3, r3, #2
 800266c:	429a      	cmp	r2, r3
 800266e:	d0b3      	beq.n	80025d8 <HAL_RCC_ClockConfig+0x24>
 8002670:	f7ff f9f4 	bl	8001a5c <HAL_GetTick>
 8002674:	9b01      	ldr	r3, [sp, #4]
 8002676:	1ac0      	subs	r0, r0, r3
 8002678:	4b11      	ldr	r3, [pc, #68]	@ (80026c0 <HAL_RCC_ClockConfig+0x10c>)
 800267a:	4298      	cmp	r0, r3
 800267c:	d9f1      	bls.n	8002662 <HAL_RCC_ClockConfig+0xae>
 800267e:	2003      	movs	r0, #3
 8002680:	e79e      	b.n	80025c0 <HAL_RCC_ClockConfig+0xc>
 8002682:	2a03      	cmp	r2, #3
 8002684:	d101      	bne.n	800268a <HAL_RCC_ClockConfig+0xd6>
 8002686:	6b73      	ldr	r3, [r6, #52]	@ 0x34
 8002688:	e7db      	b.n	8002642 <HAL_RCC_ClockConfig+0x8e>
 800268a:	6833      	ldr	r3, [r6, #0]
 800268c:	079b      	lsls	r3, r3, #30
 800268e:	d4e0      	bmi.n	8002652 <HAL_RCC_ClockConfig+0x9e>
 8002690:	e795      	b.n	80025be <HAL_RCC_ClockConfig+0xa>
 8002692:	682a      	ldr	r2, [r5, #0]
 8002694:	439a      	bics	r2, r3
 8002696:	602a      	str	r2, [r5, #0]
 8002698:	682a      	ldr	r2, [r5, #0]
 800269a:	421a      	tst	r2, r3
 800269c:	d0a1      	beq.n	80025e2 <HAL_RCC_ClockConfig+0x2e>
 800269e:	e78e      	b.n	80025be <HAL_RCC_ClockConfig+0xa>
 80026a0:	686b      	ldr	r3, [r5, #4]
 80026a2:	4a08      	ldr	r2, [pc, #32]	@ (80026c4 <HAL_RCC_ClockConfig+0x110>)
 80026a4:	4013      	ands	r3, r2
 80026a6:	68e2      	ldr	r2, [r4, #12]
 80026a8:	4313      	orrs	r3, r2
 80026aa:	606b      	str	r3, [r5, #4]
 80026ac:	e79d      	b.n	80025ea <HAL_RCC_ClockConfig+0x36>
 80026ae:	46c0      	nop			@ (mov r8, r8)
 80026b0:	40022000 	.word	0x40022000
 80026b4:	40021000 	.word	0x40021000
 80026b8:	08002d84 	.word	0x08002d84
 80026bc:	20000004 	.word	0x20000004
 80026c0:	00001388 	.word	0x00001388
 80026c4:	fffff8ff 	.word	0xfffff8ff

080026c8 <HAL_RCC_GetPCLK1Freq>:
 80026c8:	4b04      	ldr	r3, [pc, #16]	@ (80026dc <HAL_RCC_GetPCLK1Freq+0x14>)
 80026ca:	4a05      	ldr	r2, [pc, #20]	@ (80026e0 <HAL_RCC_GetPCLK1Freq+0x18>)
 80026cc:	685b      	ldr	r3, [r3, #4]
 80026ce:	4905      	ldr	r1, [pc, #20]	@ (80026e4 <HAL_RCC_GetPCLK1Freq+0x1c>)
 80026d0:	055b      	lsls	r3, r3, #21
 80026d2:	0f5b      	lsrs	r3, r3, #29
 80026d4:	5ccb      	ldrb	r3, [r1, r3]
 80026d6:	6810      	ldr	r0, [r2, #0]
 80026d8:	40d8      	lsrs	r0, r3
 80026da:	4770      	bx	lr
 80026dc:	40021000 	.word	0x40021000
 80026e0:	20000004 	.word	0x20000004
 80026e4:	08002d7c 	.word	0x08002d7c

080026e8 <HAL_RCCEx_PeriphCLKConfig>:
 80026e8:	b5f0      	push	{r4, r5, r6, r7, lr}
 80026ea:	6803      	ldr	r3, [r0, #0]
 80026ec:	0005      	movs	r5, r0
 80026ee:	b085      	sub	sp, #20
 80026f0:	03db      	lsls	r3, r3, #15
 80026f2:	d52b      	bpl.n	800274c <HAL_RCCEx_PeriphCLKConfig+0x64>
 80026f4:	2280      	movs	r2, #128	@ 0x80
 80026f6:	2100      	movs	r1, #0
 80026f8:	4c46      	ldr	r4, [pc, #280]	@ (8002814 <HAL_RCCEx_PeriphCLKConfig+0x12c>)
 80026fa:	0552      	lsls	r2, r2, #21
 80026fc:	69e3      	ldr	r3, [r4, #28]
 80026fe:	9100      	str	r1, [sp, #0]
 8002700:	4213      	tst	r3, r2
 8002702:	d108      	bne.n	8002716 <HAL_RCCEx_PeriphCLKConfig+0x2e>
 8002704:	69e3      	ldr	r3, [r4, #28]
 8002706:	4313      	orrs	r3, r2
 8002708:	61e3      	str	r3, [r4, #28]
 800270a:	69e3      	ldr	r3, [r4, #28]
 800270c:	4013      	ands	r3, r2
 800270e:	9303      	str	r3, [sp, #12]
 8002710:	9b03      	ldr	r3, [sp, #12]
 8002712:	2301      	movs	r3, #1
 8002714:	9300      	str	r3, [sp, #0]
 8002716:	2780      	movs	r7, #128	@ 0x80
 8002718:	4e3f      	ldr	r6, [pc, #252]	@ (8002818 <HAL_RCCEx_PeriphCLKConfig+0x130>)
 800271a:	007f      	lsls	r7, r7, #1
 800271c:	6833      	ldr	r3, [r6, #0]
 800271e:	423b      	tst	r3, r7
 8002720:	d03d      	beq.n	800279e <HAL_RCCEx_PeriphCLKConfig+0xb6>
 8002722:	6a21      	ldr	r1, [r4, #32]
 8002724:	22c0      	movs	r2, #192	@ 0xc0
 8002726:	0008      	movs	r0, r1
 8002728:	0092      	lsls	r2, r2, #2
 800272a:	686b      	ldr	r3, [r5, #4]
 800272c:	4e3b      	ldr	r6, [pc, #236]	@ (800281c <HAL_RCCEx_PeriphCLKConfig+0x134>)
 800272e:	4010      	ands	r0, r2
 8002730:	4211      	tst	r1, r2
 8002732:	d146      	bne.n	80027c2 <HAL_RCCEx_PeriphCLKConfig+0xda>
 8002734:	6a23      	ldr	r3, [r4, #32]
 8002736:	686a      	ldr	r2, [r5, #4]
 8002738:	4033      	ands	r3, r6
 800273a:	4313      	orrs	r3, r2
 800273c:	6223      	str	r3, [r4, #32]
 800273e:	9b00      	ldr	r3, [sp, #0]
 8002740:	2b01      	cmp	r3, #1
 8002742:	d103      	bne.n	800274c <HAL_RCCEx_PeriphCLKConfig+0x64>
 8002744:	69e3      	ldr	r3, [r4, #28]
 8002746:	4a36      	ldr	r2, [pc, #216]	@ (8002820 <HAL_RCCEx_PeriphCLKConfig+0x138>)
 8002748:	4013      	ands	r3, r2
 800274a:	61e3      	str	r3, [r4, #28]
 800274c:	682b      	ldr	r3, [r5, #0]
 800274e:	07da      	lsls	r2, r3, #31
 8002750:	d506      	bpl.n	8002760 <HAL_RCCEx_PeriphCLKConfig+0x78>
 8002752:	2003      	movs	r0, #3
 8002754:	492f      	ldr	r1, [pc, #188]	@ (8002814 <HAL_RCCEx_PeriphCLKConfig+0x12c>)
 8002756:	6b0a      	ldr	r2, [r1, #48]	@ 0x30
 8002758:	4382      	bics	r2, r0
 800275a:	68a8      	ldr	r0, [r5, #8]
 800275c:	4302      	orrs	r2, r0
 800275e:	630a      	str	r2, [r1, #48]	@ 0x30
 8002760:	079a      	lsls	r2, r3, #30
 8002762:	d506      	bpl.n	8002772 <HAL_RCCEx_PeriphCLKConfig+0x8a>
 8002764:	492b      	ldr	r1, [pc, #172]	@ (8002814 <HAL_RCCEx_PeriphCLKConfig+0x12c>)
 8002766:	482f      	ldr	r0, [pc, #188]	@ (8002824 <HAL_RCCEx_PeriphCLKConfig+0x13c>)
 8002768:	6b0a      	ldr	r2, [r1, #48]	@ 0x30
 800276a:	4002      	ands	r2, r0
 800276c:	68e8      	ldr	r0, [r5, #12]
 800276e:	4302      	orrs	r2, r0
 8002770:	630a      	str	r2, [r1, #48]	@ 0x30
 8002772:	035a      	lsls	r2, r3, #13
 8002774:	d506      	bpl.n	8002784 <HAL_RCCEx_PeriphCLKConfig+0x9c>
 8002776:	4927      	ldr	r1, [pc, #156]	@ (8002814 <HAL_RCCEx_PeriphCLKConfig+0x12c>)
 8002778:	482b      	ldr	r0, [pc, #172]	@ (8002828 <HAL_RCCEx_PeriphCLKConfig+0x140>)
 800277a:	6b0a      	ldr	r2, [r1, #48]	@ 0x30
 800277c:	4002      	ands	r2, r0
 800277e:	6928      	ldr	r0, [r5, #16]
 8002780:	4302      	orrs	r2, r0
 8002782:	630a      	str	r2, [r1, #48]	@ 0x30
 8002784:	069a      	lsls	r2, r3, #26
 8002786:	d506      	bpl.n	8002796 <HAL_RCCEx_PeriphCLKConfig+0xae>
 8002788:	2010      	movs	r0, #16
 800278a:	4922      	ldr	r1, [pc, #136]	@ (8002814 <HAL_RCCEx_PeriphCLKConfig+0x12c>)
 800278c:	6b0a      	ldr	r2, [r1, #48]	@ 0x30
 800278e:	4382      	bics	r2, r0
 8002790:	6968      	ldr	r0, [r5, #20]
 8002792:	4302      	orrs	r2, r0
 8002794:	630a      	str	r2, [r1, #48]	@ 0x30
 8002796:	055b      	lsls	r3, r3, #21
 8002798:	d433      	bmi.n	8002802 <HAL_RCCEx_PeriphCLKConfig+0x11a>
 800279a:	2000      	movs	r0, #0
 800279c:	e00f      	b.n	80027be <HAL_RCCEx_PeriphCLKConfig+0xd6>
 800279e:	6833      	ldr	r3, [r6, #0]
 80027a0:	433b      	orrs	r3, r7
 80027a2:	6033      	str	r3, [r6, #0]
 80027a4:	f7ff f95a 	bl	8001a5c <HAL_GetTick>
 80027a8:	9001      	str	r0, [sp, #4]
 80027aa:	6833      	ldr	r3, [r6, #0]
 80027ac:	423b      	tst	r3, r7
 80027ae:	d1b8      	bne.n	8002722 <HAL_RCCEx_PeriphCLKConfig+0x3a>
 80027b0:	f7ff f954 	bl	8001a5c <HAL_GetTick>
 80027b4:	9b01      	ldr	r3, [sp, #4]
 80027b6:	1ac0      	subs	r0, r0, r3
 80027b8:	2864      	cmp	r0, #100	@ 0x64
 80027ba:	d9f6      	bls.n	80027aa <HAL_RCCEx_PeriphCLKConfig+0xc2>
 80027bc:	2003      	movs	r0, #3
 80027be:	b005      	add	sp, #20
 80027c0:	bdf0      	pop	{r4, r5, r6, r7, pc}
 80027c2:	4013      	ands	r3, r2
 80027c4:	4283      	cmp	r3, r0
 80027c6:	d0b5      	beq.n	8002734 <HAL_RCCEx_PeriphCLKConfig+0x4c>
 80027c8:	2280      	movs	r2, #128	@ 0x80
 80027ca:	6a23      	ldr	r3, [r4, #32]
 80027cc:	6a20      	ldr	r0, [r4, #32]
 80027ce:	0019      	movs	r1, r3
 80027d0:	0252      	lsls	r2, r2, #9
 80027d2:	4302      	orrs	r2, r0
 80027d4:	6222      	str	r2, [r4, #32]
 80027d6:	6a22      	ldr	r2, [r4, #32]
 80027d8:	4814      	ldr	r0, [pc, #80]	@ (800282c <HAL_RCCEx_PeriphCLKConfig+0x144>)
 80027da:	4031      	ands	r1, r6
 80027dc:	4002      	ands	r2, r0
 80027de:	6222      	str	r2, [r4, #32]
 80027e0:	6221      	str	r1, [r4, #32]
 80027e2:	07db      	lsls	r3, r3, #31
 80027e4:	d5a6      	bpl.n	8002734 <HAL_RCCEx_PeriphCLKConfig+0x4c>
 80027e6:	f7ff f939 	bl	8001a5c <HAL_GetTick>
 80027ea:	0007      	movs	r7, r0
 80027ec:	2202      	movs	r2, #2
 80027ee:	6a23      	ldr	r3, [r4, #32]
 80027f0:	4213      	tst	r3, r2
 80027f2:	d19f      	bne.n	8002734 <HAL_RCCEx_PeriphCLKConfig+0x4c>
 80027f4:	f7ff f932 	bl	8001a5c <HAL_GetTick>
 80027f8:	4b0d      	ldr	r3, [pc, #52]	@ (8002830 <HAL_RCCEx_PeriphCLKConfig+0x148>)
 80027fa:	1bc0      	subs	r0, r0, r7
 80027fc:	4298      	cmp	r0, r3
 80027fe:	d9f5      	bls.n	80027ec <HAL_RCCEx_PeriphCLKConfig+0x104>
 8002800:	e7dc      	b.n	80027bc <HAL_RCCEx_PeriphCLKConfig+0xd4>
 8002802:	2140      	movs	r1, #64	@ 0x40
 8002804:	4a03      	ldr	r2, [pc, #12]	@ (8002814 <HAL_RCCEx_PeriphCLKConfig+0x12c>)
 8002806:	6b13      	ldr	r3, [r2, #48]	@ 0x30
 8002808:	438b      	bics	r3, r1
 800280a:	69a9      	ldr	r1, [r5, #24]
 800280c:	430b      	orrs	r3, r1
 800280e:	6313      	str	r3, [r2, #48]	@ 0x30
 8002810:	e7c3      	b.n	800279a <HAL_RCCEx_PeriphCLKConfig+0xb2>
 8002812:	46c0      	nop			@ (mov r8, r8)
 8002814:	40021000 	.word	0x40021000
 8002818:	40007000 	.word	0x40007000
 800281c:	fffffcff 	.word	0xfffffcff
 8002820:	efffffff 	.word	0xefffffff
 8002824:	fffcffff 	.word	0xfffcffff
 8002828:	fff3ffff 	.word	0xfff3ffff
 800282c:	fffeffff 	.word	0xfffeffff
 8002830:	00001388 	.word	0x00001388

08002834 <UART_EndRxTransfer>:
 8002834:	b530      	push	{r4, r5, lr}
 8002836:	f3ef 8410 	mrs	r4, PRIMASK
 800283a:	2201      	movs	r2, #1
 800283c:	f382 8810 	msr	PRIMASK, r2
 8002840:	6801      	ldr	r1, [r0, #0]
 8002842:	4d12      	ldr	r5, [pc, #72]	@ (800288c <UART_EndRxTransfer+0x58>)
 8002844:	680b      	ldr	r3, [r1, #0]
 8002846:	402b      	ands	r3, r5
 8002848:	600b      	str	r3, [r1, #0]
 800284a:	f384 8810 	msr	PRIMASK, r4
 800284e:	f3ef 8410 	mrs	r4, PRIMASK
 8002852:	f382 8810 	msr	PRIMASK, r2
 8002856:	6801      	ldr	r1, [r0, #0]
 8002858:	688b      	ldr	r3, [r1, #8]
 800285a:	4393      	bics	r3, r2
 800285c:	608b      	str	r3, [r1, #8]
 800285e:	f384 8810 	msr	PRIMASK, r4
 8002862:	6e03      	ldr	r3, [r0, #96]	@ 0x60
 8002864:	4293      	cmp	r3, r2
 8002866:	d10a      	bne.n	800287e <UART_EndRxTransfer+0x4a>
 8002868:	f3ef 8110 	mrs	r1, PRIMASK
 800286c:	f383 8810 	msr	PRIMASK, r3
 8002870:	2410      	movs	r4, #16
 8002872:	6802      	ldr	r2, [r0, #0]
 8002874:	6813      	ldr	r3, [r2, #0]
 8002876:	43a3      	bics	r3, r4
 8002878:	6013      	str	r3, [r2, #0]
 800287a:	f381 8810 	msr	PRIMASK, r1
 800287e:	2220      	movs	r2, #32
 8002880:	1d03      	adds	r3, r0, #4
 8002882:	67da      	str	r2, [r3, #124]	@ 0x7c
 8002884:	2300      	movs	r3, #0
 8002886:	6603      	str	r3, [r0, #96]	@ 0x60
 8002888:	6683      	str	r3, [r0, #104]	@ 0x68
 800288a:	bd30      	pop	{r4, r5, pc}
 800288c:	fffffedf 	.word	0xfffffedf

08002890 <UART_SetConfig>:
 8002890:	b570      	push	{r4, r5, r6, lr}
 8002892:	0004      	movs	r4, r0
 8002894:	6925      	ldr	r5, [r4, #16]
 8002896:	68a1      	ldr	r1, [r4, #8]
 8002898:	6803      	ldr	r3, [r0, #0]
 800289a:	4329      	orrs	r1, r5
 800289c:	6965      	ldr	r5, [r4, #20]
 800289e:	69c2      	ldr	r2, [r0, #28]
 80028a0:	4329      	orrs	r1, r5
 80028a2:	6818      	ldr	r0, [r3, #0]
 80028a4:	4d5a      	ldr	r5, [pc, #360]	@ (8002a10 <UART_SetConfig+0x180>)
 80028a6:	4311      	orrs	r1, r2
 80028a8:	4028      	ands	r0, r5
 80028aa:	4301      	orrs	r1, r0
 80028ac:	6019      	str	r1, [r3, #0]
 80028ae:	6859      	ldr	r1, [r3, #4]
 80028b0:	4858      	ldr	r0, [pc, #352]	@ (8002a14 <UART_SetConfig+0x184>)
 80028b2:	6a25      	ldr	r5, [r4, #32]
 80028b4:	4001      	ands	r1, r0
 80028b6:	68e0      	ldr	r0, [r4, #12]
 80028b8:	4301      	orrs	r1, r0
 80028ba:	6059      	str	r1, [r3, #4]
 80028bc:	69a1      	ldr	r1, [r4, #24]
 80028be:	6898      	ldr	r0, [r3, #8]
 80028c0:	4329      	orrs	r1, r5
 80028c2:	4d55      	ldr	r5, [pc, #340]	@ (8002a18 <UART_SetConfig+0x188>)
 80028c4:	4028      	ands	r0, r5
 80028c6:	4301      	orrs	r1, r0
 80028c8:	6099      	str	r1, [r3, #8]
 80028ca:	4954      	ldr	r1, [pc, #336]	@ (8002a1c <UART_SetConfig+0x18c>)
 80028cc:	428b      	cmp	r3, r1
 80028ce:	d116      	bne.n	80028fe <UART_SetConfig+0x6e>
 80028d0:	2103      	movs	r1, #3
 80028d2:	4b53      	ldr	r3, [pc, #332]	@ (8002a20 <UART_SetConfig+0x190>)
 80028d4:	6b1b      	ldr	r3, [r3, #48]	@ 0x30
 80028d6:	400b      	ands	r3, r1
 80028d8:	2b02      	cmp	r3, #2
 80028da:	d100      	bne.n	80028de <UART_SetConfig+0x4e>
 80028dc:	e08d      	b.n	80029fa <UART_SetConfig+0x16a>
 80028de:	428b      	cmp	r3, r1
 80028e0:	d100      	bne.n	80028e4 <UART_SetConfig+0x54>
 80028e2:	e08f      	b.n	8002a04 <UART_SetConfig+0x174>
 80028e4:	2b01      	cmp	r3, #1
 80028e6:	d01a      	beq.n	800291e <UART_SetConfig+0x8e>
 80028e8:	2380      	movs	r3, #128	@ 0x80
 80028ea:	021b      	lsls	r3, r3, #8
 80028ec:	429a      	cmp	r2, r3
 80028ee:	d000      	beq.n	80028f2 <UART_SetConfig+0x62>
 80028f0:	e07a      	b.n	80029e8 <UART_SetConfig+0x158>
 80028f2:	f7ff fee9 	bl	80026c8 <HAL_RCC_GetPCLK1Freq>
 80028f6:	1e02      	subs	r2, r0, #0
 80028f8:	d149      	bne.n	800298e <UART_SetConfig+0xfe>
 80028fa:	2000      	movs	r0, #0
 80028fc:	e024      	b.n	8002948 <UART_SetConfig+0xb8>
 80028fe:	4949      	ldr	r1, [pc, #292]	@ (8002a24 <UART_SetConfig+0x194>)
 8002900:	428b      	cmp	r3, r1
 8002902:	d113      	bne.n	800292c <UART_SetConfig+0x9c>
 8002904:	21c0      	movs	r1, #192	@ 0xc0
 8002906:	2080      	movs	r0, #128	@ 0x80
 8002908:	4b45      	ldr	r3, [pc, #276]	@ (8002a20 <UART_SetConfig+0x190>)
 800290a:	0289      	lsls	r1, r1, #10
 800290c:	6b1b      	ldr	r3, [r3, #48]	@ 0x30
 800290e:	0280      	lsls	r0, r0, #10
 8002910:	400b      	ands	r3, r1
 8002912:	4283      	cmp	r3, r0
 8002914:	d100      	bne.n	8002918 <UART_SetConfig+0x88>
 8002916:	e070      	b.n	80029fa <UART_SetConfig+0x16a>
 8002918:	d813      	bhi.n	8002942 <UART_SetConfig+0xb2>
 800291a:	2b00      	cmp	r3, #0
 800291c:	d0e4      	beq.n	80028e8 <UART_SetConfig+0x58>
 800291e:	2380      	movs	r3, #128	@ 0x80
 8002920:	021b      	lsls	r3, r3, #8
 8002922:	429a      	cmp	r2, r3
 8002924:	d166      	bne.n	80029f4 <UART_SetConfig+0x164>
 8002926:	f7ff fe0f 	bl	8002548 <HAL_RCC_GetSysClockFreq>
 800292a:	e7e4      	b.n	80028f6 <UART_SetConfig+0x66>
 800292c:	493e      	ldr	r1, [pc, #248]	@ (8002a28 <UART_SetConfig+0x198>)
 800292e:	428b      	cmp	r3, r1
 8002930:	d10e      	bne.n	8002950 <UART_SetConfig+0xc0>
 8002932:	21c0      	movs	r1, #192	@ 0xc0
 8002934:	2080      	movs	r0, #128	@ 0x80
 8002936:	4b3a      	ldr	r3, [pc, #232]	@ (8002a20 <UART_SetConfig+0x190>)
 8002938:	0309      	lsls	r1, r1, #12
 800293a:	6b1b      	ldr	r3, [r3, #48]	@ 0x30
 800293c:	0300      	lsls	r0, r0, #12
 800293e:	400b      	ands	r3, r1
 8002940:	e7e7      	b.n	8002912 <UART_SetConfig+0x82>
 8002942:	428b      	cmp	r3, r1
 8002944:	d05e      	beq.n	8002a04 <UART_SetConfig+0x174>
 8002946:	2001      	movs	r0, #1
 8002948:	2300      	movs	r3, #0
 800294a:	66a3      	str	r3, [r4, #104]	@ 0x68
 800294c:	66e3      	str	r3, [r4, #108]	@ 0x6c
 800294e:	bd70      	pop	{r4, r5, r6, pc}
 8002950:	4936      	ldr	r1, [pc, #216]	@ (8002a2c <UART_SetConfig+0x19c>)
 8002952:	428b      	cmp	r3, r1
 8002954:	d0c8      	beq.n	80028e8 <UART_SetConfig+0x58>
 8002956:	4936      	ldr	r1, [pc, #216]	@ (8002a30 <UART_SetConfig+0x1a0>)
 8002958:	428b      	cmp	r3, r1
 800295a:	d0c5      	beq.n	80028e8 <UART_SetConfig+0x58>
 800295c:	4935      	ldr	r1, [pc, #212]	@ (8002a34 <UART_SetConfig+0x1a4>)
 800295e:	428b      	cmp	r3, r1
 8002960:	d0c2      	beq.n	80028e8 <UART_SetConfig+0x58>
 8002962:	4935      	ldr	r1, [pc, #212]	@ (8002a38 <UART_SetConfig+0x1a8>)
 8002964:	428b      	cmp	r3, r1
 8002966:	d0bf      	beq.n	80028e8 <UART_SetConfig+0x58>
 8002968:	4934      	ldr	r1, [pc, #208]	@ (8002a3c <UART_SetConfig+0x1ac>)
 800296a:	185b      	adds	r3, r3, r1
 800296c:	1e59      	subs	r1, r3, #1
 800296e:	418b      	sbcs	r3, r1
 8002970:	0118      	lsls	r0, r3, #4
 8002972:	2380      	movs	r3, #128	@ 0x80
 8002974:	021b      	lsls	r3, r3, #8
 8002976:	429a      	cmp	r2, r3
 8002978:	d11e      	bne.n	80029b8 <UART_SetConfig+0x128>
 800297a:	2808      	cmp	r0, #8
 800297c:	d8e3      	bhi.n	8002946 <UART_SetConfig+0xb6>
 800297e:	f7fd fbc1 	bl	8000104 <__gnu_thumb1_case_sqi>
 8002982:	e2b8      	.short	0xe2b8
 8002984:	e2d2e205 	.word	0xe2d2e205
 8002988:	e2e2      	.short	0xe2e2
 800298a:	06          	.byte	0x06
 800298b:	00          	.byte	0x00
 800298c:	4a2c      	ldr	r2, [pc, #176]	@ (8002a40 <UART_SetConfig+0x1b0>)
 800298e:	6861      	ldr	r1, [r4, #4]
 8002990:	0052      	lsls	r2, r2, #1
 8002992:	0848      	lsrs	r0, r1, #1
 8002994:	1810      	adds	r0, r2, r0
 8002996:	f7fd fbbf 	bl	8000118 <__udivsi3>
 800299a:	0002      	movs	r2, r0
 800299c:	4b29      	ldr	r3, [pc, #164]	@ (8002a44 <UART_SetConfig+0x1b4>)
 800299e:	3a10      	subs	r2, #16
 80029a0:	429a      	cmp	r2, r3
 80029a2:	d8d0      	bhi.n	8002946 <UART_SetConfig+0xb6>
 80029a4:	230f      	movs	r3, #15
 80029a6:	0002      	movs	r2, r0
 80029a8:	0700      	lsls	r0, r0, #28
 80029aa:	439a      	bics	r2, r3
 80029ac:	b293      	uxth	r3, r2
 80029ae:	0f40      	lsrs	r0, r0, #29
 80029b0:	6822      	ldr	r2, [r4, #0]
 80029b2:	4303      	orrs	r3, r0
 80029b4:	60d3      	str	r3, [r2, #12]
 80029b6:	e7a0      	b.n	80028fa <UART_SetConfig+0x6a>
 80029b8:	2808      	cmp	r0, #8
 80029ba:	d8c4      	bhi.n	8002946 <UART_SetConfig+0xb6>
 80029bc:	f7fd fba2 	bl	8000104 <__gnu_thumb1_case_sqi>
 80029c0:	c326c314 	.word	0xc326c314
 80029c4:	c3c3c31a 	.word	0xc3c3c31a
 80029c8:	05          	.byte	0x05
 80029c9:	00          	.byte	0x00
 80029ca:	2080      	movs	r0, #128	@ 0x80
 80029cc:	0200      	lsls	r0, r0, #8
 80029ce:	6861      	ldr	r1, [r4, #4]
 80029d0:	084b      	lsrs	r3, r1, #1
 80029d2:	1818      	adds	r0, r3, r0
 80029d4:	f7fd fba0 	bl	8000118 <__udivsi3>
 80029d8:	0002      	movs	r2, r0
 80029da:	4b1a      	ldr	r3, [pc, #104]	@ (8002a44 <UART_SetConfig+0x1b4>)
 80029dc:	3a10      	subs	r2, #16
 80029de:	429a      	cmp	r2, r3
 80029e0:	d8b1      	bhi.n	8002946 <UART_SetConfig+0xb6>
 80029e2:	6823      	ldr	r3, [r4, #0]
 80029e4:	60d8      	str	r0, [r3, #12]
 80029e6:	e788      	b.n	80028fa <UART_SetConfig+0x6a>
 80029e8:	f7ff fe6e 	bl	80026c8 <HAL_RCC_GetPCLK1Freq>
 80029ec:	2800      	cmp	r0, #0
 80029ee:	d100      	bne.n	80029f2 <UART_SetConfig+0x162>
 80029f0:	e783      	b.n	80028fa <UART_SetConfig+0x6a>
 80029f2:	e7ec      	b.n	80029ce <UART_SetConfig+0x13e>
 80029f4:	f7ff fda8 	bl	8002548 <HAL_RCC_GetSysClockFreq>
 80029f8:	e7f8      	b.n	80029ec <UART_SetConfig+0x15c>
 80029fa:	2080      	movs	r0, #128	@ 0x80
 80029fc:	0200      	lsls	r0, r0, #8
 80029fe:	4282      	cmp	r2, r0
 8002a00:	d1e5      	bne.n	80029ce <UART_SetConfig+0x13e>
 8002a02:	e7c4      	b.n	800298e <UART_SetConfig+0xfe>
 8002a04:	2380      	movs	r3, #128	@ 0x80
 8002a06:	021b      	lsls	r3, r3, #8
 8002a08:	429a      	cmp	r2, r3
 8002a0a:	d0bf      	beq.n	800298c <UART_SetConfig+0xfc>
 8002a0c:	480c      	ldr	r0, [pc, #48]	@ (8002a40 <UART_SetConfig+0x1b0>)
 8002a0e:	e7de      	b.n	80029ce <UART_SetConfig+0x13e>
 8002a10:	efff69f3 	.word	0xefff69f3
 8002a14:	ffffcfff 	.word	0xffffcfff
 8002a18:	fffff4ff 	.word	0xfffff4ff
 8002a1c:	40013800 	.word	0x40013800
 8002a20:	40021000 	.word	0x40021000
 8002a24:	40004400 	.word	0x40004400
 8002a28:	40004800 	.word	0x40004800
 8002a2c:	40004c00 	.word	0x40004c00
 8002a30:	40005000 	.word	0x40005000
 8002a34:	40011400 	.word	0x40011400
 8002a38:	40011800 	.word	0x40011800
 8002a3c:	bffee400 	.word	0xbffee400
 8002a40:	007a1200 	.word	0x007a1200
 8002a44:	0000ffef 	.word	0x0000ffef

08002a48 <UART_AdvFeatureConfig>:
 8002a48:	6a43      	ldr	r3, [r0, #36]	@ 0x24
 8002a4a:	b530      	push	{r4, r5, lr}
 8002a4c:	071a      	lsls	r2, r3, #28
 8002a4e:	d506      	bpl.n	8002a5e <UART_AdvFeatureConfig+0x16>
 8002a50:	6801      	ldr	r1, [r0, #0]
 8002a52:	4c28      	ldr	r4, [pc, #160]	@ (8002af4 <UART_AdvFeatureConfig+0xac>)
 8002a54:	684a      	ldr	r2, [r1, #4]
 8002a56:	4022      	ands	r2, r4
 8002a58:	6b44      	ldr	r4, [r0, #52]	@ 0x34
 8002a5a:	4322      	orrs	r2, r4
 8002a5c:	604a      	str	r2, [r1, #4]
 8002a5e:	07da      	lsls	r2, r3, #31
 8002a60:	d506      	bpl.n	8002a70 <UART_AdvFeatureConfig+0x28>
 8002a62:	6801      	ldr	r1, [r0, #0]
 8002a64:	4c24      	ldr	r4, [pc, #144]	@ (8002af8 <UART_AdvFeatureConfig+0xb0>)
 8002a66:	684a      	ldr	r2, [r1, #4]
 8002a68:	4022      	ands	r2, r4
 8002a6a:	6a84      	ldr	r4, [r0, #40]	@ 0x28
 8002a6c:	4322      	orrs	r2, r4
 8002a6e:	604a      	str	r2, [r1, #4]
 8002a70:	079a      	lsls	r2, r3, #30
 8002a72:	d506      	bpl.n	8002a82 <UART_AdvFeatureConfig+0x3a>
 8002a74:	6801      	ldr	r1, [r0, #0]
 8002a76:	4c21      	ldr	r4, [pc, #132]	@ (8002afc <UART_AdvFeatureConfig+0xb4>)
 8002a78:	684a      	ldr	r2, [r1, #4]
 8002a7a:	4022      	ands	r2, r4
 8002a7c:	6ac4      	ldr	r4, [r0, #44]	@ 0x2c
 8002a7e:	4322      	orrs	r2, r4
 8002a80:	604a      	str	r2, [r1, #4]
 8002a82:	075a      	lsls	r2, r3, #29
 8002a84:	d506      	bpl.n	8002a94 <UART_AdvFeatureConfig+0x4c>
 8002a86:	6801      	ldr	r1, [r0, #0]
 8002a88:	4c1d      	ldr	r4, [pc, #116]	@ (8002b00 <UART_AdvFeatureConfig+0xb8>)
 8002a8a:	684a      	ldr	r2, [r1, #4]
 8002a8c:	4022      	ands	r2, r4
 8002a8e:	6b04      	ldr	r4, [r0, #48]	@ 0x30
 8002a90:	4322      	orrs	r2, r4
 8002a92:	604a      	str	r2, [r1, #4]
 8002a94:	06da      	lsls	r2, r3, #27
 8002a96:	d506      	bpl.n	8002aa6 <UART_AdvFeatureConfig+0x5e>
 8002a98:	6801      	ldr	r1, [r0, #0]
 8002a9a:	4c1a      	ldr	r4, [pc, #104]	@ (8002b04 <UART_AdvFeatureConfig+0xbc>)
 8002a9c:	688a      	ldr	r2, [r1, #8]
 8002a9e:	4022      	ands	r2, r4
 8002aa0:	6b84      	ldr	r4, [r0, #56]	@ 0x38
 8002aa2:	4322      	orrs	r2, r4
 8002aa4:	608a      	str	r2, [r1, #8]
 8002aa6:	069a      	lsls	r2, r3, #26
 8002aa8:	d506      	bpl.n	8002ab8 <UART_AdvFeatureConfig+0x70>
 8002aaa:	6801      	ldr	r1, [r0, #0]
 8002aac:	4c16      	ldr	r4, [pc, #88]	@ (8002b08 <UART_AdvFeatureConfig+0xc0>)
 8002aae:	688a      	ldr	r2, [r1, #8]
 8002ab0:	4022      	ands	r2, r4
 8002ab2:	6bc4      	ldr	r4, [r0, #60]	@ 0x3c
 8002ab4:	4322      	orrs	r2, r4
 8002ab6:	608a      	str	r2, [r1, #8]
 8002ab8:	065a      	lsls	r2, r3, #25
 8002aba:	d510      	bpl.n	8002ade <UART_AdvFeatureConfig+0x96>
 8002abc:	6801      	ldr	r1, [r0, #0]
 8002abe:	4d13      	ldr	r5, [pc, #76]	@ (8002b0c <UART_AdvFeatureConfig+0xc4>)
 8002ac0:	684a      	ldr	r2, [r1, #4]
 8002ac2:	6c04      	ldr	r4, [r0, #64]	@ 0x40
 8002ac4:	402a      	ands	r2, r5
 8002ac6:	4322      	orrs	r2, r4
 8002ac8:	604a      	str	r2, [r1, #4]
 8002aca:	2280      	movs	r2, #128	@ 0x80
 8002acc:	0352      	lsls	r2, r2, #13
 8002ace:	4294      	cmp	r4, r2
 8002ad0:	d105      	bne.n	8002ade <UART_AdvFeatureConfig+0x96>
 8002ad2:	684a      	ldr	r2, [r1, #4]
 8002ad4:	4c0e      	ldr	r4, [pc, #56]	@ (8002b10 <UART_AdvFeatureConfig+0xc8>)
 8002ad6:	4022      	ands	r2, r4
 8002ad8:	6c44      	ldr	r4, [r0, #68]	@ 0x44
 8002ada:	4322      	orrs	r2, r4
 8002adc:	604a      	str	r2, [r1, #4]
 8002ade:	061b      	lsls	r3, r3, #24
 8002ae0:	d506      	bpl.n	8002af0 <UART_AdvFeatureConfig+0xa8>
 8002ae2:	6802      	ldr	r2, [r0, #0]
 8002ae4:	490b      	ldr	r1, [pc, #44]	@ (8002b14 <UART_AdvFeatureConfig+0xcc>)
 8002ae6:	6853      	ldr	r3, [r2, #4]
 8002ae8:	400b      	ands	r3, r1
 8002aea:	6c81      	ldr	r1, [r0, #72]	@ 0x48
 8002aec:	430b      	orrs	r3, r1
 8002aee:	6053      	str	r3, [r2, #4]
 8002af0:	bd30      	pop	{r4, r5, pc}
 8002af2:	46c0      	nop			@ (mov r8, r8)
 8002af4:	ffff7fff 	.word	0xffff7fff
 8002af8:	fffdffff 	.word	0xfffdffff
 8002afc:	fffeffff 	.word	0xfffeffff
 8002b00:	fffbffff 	.word	0xfffbffff
 8002b04:	ffffefff 	.word	0xffffefff
 8002b08:	ffffdfff 	.word	0xffffdfff
 8002b0c:	ffefffff 	.word	0xffefffff
 8002b10:	ff9fffff 	.word	0xff9fffff
 8002b14:	fff7ffff 	.word	0xfff7ffff

08002b18 <UART_WaitOnFlagUntilTimeout>:
 8002b18:	b5f7      	push	{r0, r1, r2, r4, r5, r6, r7, lr}
 8002b1a:	0004      	movs	r4, r0
 8002b1c:	000d      	movs	r5, r1
 8002b1e:	0017      	movs	r7, r2
 8002b20:	9300      	str	r3, [sp, #0]
 8002b22:	6822      	ldr	r2, [r4, #0]
 8002b24:	69d3      	ldr	r3, [r2, #28]
 8002b26:	402b      	ands	r3, r5
 8002b28:	1b5b      	subs	r3, r3, r5
 8002b2a:	4259      	negs	r1, r3
 8002b2c:	414b      	adcs	r3, r1
 8002b2e:	42bb      	cmp	r3, r7
 8002b30:	d001      	beq.n	8002b36 <UART_WaitOnFlagUntilTimeout+0x1e>
 8002b32:	2000      	movs	r0, #0
 8002b34:	e025      	b.n	8002b82 <UART_WaitOnFlagUntilTimeout+0x6a>
 8002b36:	9b08      	ldr	r3, [sp, #32]
 8002b38:	3301      	adds	r3, #1
 8002b3a:	d0f3      	beq.n	8002b24 <UART_WaitOnFlagUntilTimeout+0xc>
 8002b3c:	f7fe ff8e 	bl	8001a5c <HAL_GetTick>
 8002b40:	9b00      	ldr	r3, [sp, #0]
 8002b42:	1ac0      	subs	r0, r0, r3
 8002b44:	9b08      	ldr	r3, [sp, #32]
 8002b46:	4298      	cmp	r0, r3
 8002b48:	d82c      	bhi.n	8002ba4 <UART_WaitOnFlagUntilTimeout+0x8c>
 8002b4a:	2b00      	cmp	r3, #0
 8002b4c:	d02a      	beq.n	8002ba4 <UART_WaitOnFlagUntilTimeout+0x8c>
 8002b4e:	6823      	ldr	r3, [r4, #0]
 8002b50:	681a      	ldr	r2, [r3, #0]
 8002b52:	0752      	lsls	r2, r2, #29
 8002b54:	d5e5      	bpl.n	8002b22 <UART_WaitOnFlagUntilTimeout+0xa>
 8002b56:	002a      	movs	r2, r5
 8002b58:	2140      	movs	r1, #64	@ 0x40
 8002b5a:	3a40      	subs	r2, #64	@ 0x40
 8002b5c:	438a      	bics	r2, r1
 8002b5e:	d0e0      	beq.n	8002b22 <UART_WaitOnFlagUntilTimeout+0xa>
 8002b60:	69da      	ldr	r2, [r3, #28]
 8002b62:	2608      	movs	r6, #8
 8002b64:	0011      	movs	r1, r2
 8002b66:	4031      	ands	r1, r6
 8002b68:	9101      	str	r1, [sp, #4]
 8002b6a:	4232      	tst	r2, r6
 8002b6c:	d00a      	beq.n	8002b84 <UART_WaitOnFlagUntilTimeout+0x6c>
 8002b6e:	0020      	movs	r0, r4
 8002b70:	621e      	str	r6, [r3, #32]
 8002b72:	f7ff fe5f 	bl	8002834 <UART_EndRxTransfer>
 8002b76:	19a3      	adds	r3, r4, r6
 8002b78:	67de      	str	r6, [r3, #124]	@ 0x7c
 8002b7a:	2300      	movs	r3, #0
 8002b7c:	2001      	movs	r0, #1
 8002b7e:	3478      	adds	r4, #120	@ 0x78
 8002b80:	7023      	strb	r3, [r4, #0]
 8002b82:	bdfe      	pop	{r1, r2, r3, r4, r5, r6, r7, pc}
 8002b84:	2280      	movs	r2, #128	@ 0x80
 8002b86:	69d9      	ldr	r1, [r3, #28]
 8002b88:	0112      	lsls	r2, r2, #4
 8002b8a:	4211      	tst	r1, r2
 8002b8c:	d0c9      	beq.n	8002b22 <UART_WaitOnFlagUntilTimeout+0xa>
 8002b8e:	621a      	str	r2, [r3, #32]
 8002b90:	0020      	movs	r0, r4
 8002b92:	f7ff fe4f 	bl	8002834 <UART_EndRxTransfer>
 8002b96:	0023      	movs	r3, r4
 8002b98:	2220      	movs	r2, #32
 8002b9a:	3308      	adds	r3, #8
 8002b9c:	67da      	str	r2, [r3, #124]	@ 0x7c
 8002b9e:	9b01      	ldr	r3, [sp, #4]
 8002ba0:	3478      	adds	r4, #120	@ 0x78
 8002ba2:	7023      	strb	r3, [r4, #0]
 8002ba4:	2003      	movs	r0, #3
 8002ba6:	e7ec      	b.n	8002b82 <UART_WaitOnFlagUntilTimeout+0x6a>

08002ba8 <UART_CheckIdleState>:
 8002ba8:	0003      	movs	r3, r0
 8002baa:	b573      	push	{r0, r1, r4, r5, r6, lr}
 8002bac:	2500      	movs	r5, #0
 8002bae:	0004      	movs	r4, r0
 8002bb0:	3308      	adds	r3, #8
 8002bb2:	67dd      	str	r5, [r3, #124]	@ 0x7c
 8002bb4:	f7fe ff52 	bl	8001a5c <HAL_GetTick>
 8002bb8:	6823      	ldr	r3, [r4, #0]
 8002bba:	0006      	movs	r6, r0
 8002bbc:	681b      	ldr	r3, [r3, #0]
 8002bbe:	071b      	lsls	r3, r3, #28
 8002bc0:	d51d      	bpl.n	8002bfe <UART_CheckIdleState+0x56>
 8002bc2:	2180      	movs	r1, #128	@ 0x80
 8002bc4:	4b26      	ldr	r3, [pc, #152]	@ (8002c60 <UART_CheckIdleState+0xb8>)
 8002bc6:	002a      	movs	r2, r5
 8002bc8:	9300      	str	r3, [sp, #0]
 8002bca:	0389      	lsls	r1, r1, #14
 8002bcc:	0003      	movs	r3, r0
 8002bce:	0020      	movs	r0, r4
 8002bd0:	f7ff ffa2 	bl	8002b18 <UART_WaitOnFlagUntilTimeout>
 8002bd4:	42a8      	cmp	r0, r5
 8002bd6:	d012      	beq.n	8002bfe <UART_CheckIdleState+0x56>
 8002bd8:	f3ef 8110 	mrs	r1, PRIMASK
 8002bdc:	2301      	movs	r3, #1
 8002bde:	f383 8810 	msr	PRIMASK, r3
 8002be2:	2080      	movs	r0, #128	@ 0x80
 8002be4:	6822      	ldr	r2, [r4, #0]
 8002be6:	6813      	ldr	r3, [r2, #0]
 8002be8:	4383      	bics	r3, r0
 8002bea:	6013      	str	r3, [r2, #0]
 8002bec:	f381 8810 	msr	PRIMASK, r1
 8002bf0:	2320      	movs	r3, #32
 8002bf2:	67e3      	str	r3, [r4, #124]	@ 0x7c
 8002bf4:	2003      	movs	r0, #3
 8002bf6:	2300      	movs	r3, #0
 8002bf8:	3478      	adds	r4, #120	@ 0x78
 8002bfa:	7023      	strb	r3, [r4, #0]
 8002bfc:	bd76      	pop	{r1, r2, r4, r5, r6, pc}
 8002bfe:	0025      	movs	r5, r4
 8002c00:	cd08      	ldmia	r5!, {r3}
 8002c02:	681b      	ldr	r3, [r3, #0]
 8002c04:	075b      	lsls	r3, r3, #29
 8002c06:	d523      	bpl.n	8002c50 <UART_CheckIdleState+0xa8>
 8002c08:	2180      	movs	r1, #128	@ 0x80
 8002c0a:	4b15      	ldr	r3, [pc, #84]	@ (8002c60 <UART_CheckIdleState+0xb8>)
 8002c0c:	2200      	movs	r2, #0
 8002c0e:	9300      	str	r3, [sp, #0]
 8002c10:	0020      	movs	r0, r4
 8002c12:	0033      	movs	r3, r6
 8002c14:	03c9      	lsls	r1, r1, #15
 8002c16:	f7ff ff7f 	bl	8002b18 <UART_WaitOnFlagUntilTimeout>
 8002c1a:	2800      	cmp	r0, #0
 8002c1c:	d018      	beq.n	8002c50 <UART_CheckIdleState+0xa8>
 8002c1e:	f3ef 8010 	mrs	r0, PRIMASK
 8002c22:	2201      	movs	r2, #1
 8002c24:	f382 8810 	msr	PRIMASK, r2
 8002c28:	6821      	ldr	r1, [r4, #0]
 8002c2a:	4e0e      	ldr	r6, [pc, #56]	@ (8002c64 <UART_CheckIdleState+0xbc>)
 8002c2c:	680b      	ldr	r3, [r1, #0]
 8002c2e:	4033      	ands	r3, r6
 8002c30:	600b      	str	r3, [r1, #0]
 8002c32:	f380 8810 	msr	PRIMASK, r0
 8002c36:	f3ef 8010 	mrs	r0, PRIMASK
 8002c3a:	f382 8810 	msr	PRIMASK, r2
 8002c3e:	6821      	ldr	r1, [r4, #0]
 8002c40:	688b      	ldr	r3, [r1, #8]
 8002c42:	4393      	bics	r3, r2
 8002c44:	608b      	str	r3, [r1, #8]
 8002c46:	f380 8810 	msr	PRIMASK, r0
 8002c4a:	2320      	movs	r3, #32
 8002c4c:	67eb      	str	r3, [r5, #124]	@ 0x7c
 8002c4e:	e7d1      	b.n	8002bf4 <UART_CheckIdleState+0x4c>
 8002c50:	2320      	movs	r3, #32
 8002c52:	2000      	movs	r0, #0
 8002c54:	67e3      	str	r3, [r4, #124]	@ 0x7c
 8002c56:	67eb      	str	r3, [r5, #124]	@ 0x7c
 8002c58:	6620      	str	r0, [r4, #96]	@ 0x60
 8002c5a:	6660      	str	r0, [r4, #100]	@ 0x64
 8002c5c:	e7cb      	b.n	8002bf6 <UART_CheckIdleState+0x4e>
 8002c5e:	46c0      	nop			@ (mov r8, r8)
 8002c60:	01ffffff 	.word	0x01ffffff
 8002c64:	fffffedf 	.word	0xfffffedf

08002c68 <HAL_UART_Init>:
 8002c68:	b510      	push	{r4, lr}
 8002c6a:	1e04      	subs	r4, r0, #0
 8002c6c:	d101      	bne.n	8002c72 <HAL_UART_Init+0xa>
 8002c6e:	2001      	movs	r0, #1
 8002c70:	bd10      	pop	{r4, pc}
 8002c72:	6fc3      	ldr	r3, [r0, #124]	@ 0x7c
 8002c74:	2b00      	cmp	r3, #0
 8002c76:	d104      	bne.n	8002c82 <HAL_UART_Init+0x1a>
 8002c78:	0002      	movs	r2, r0
 8002c7a:	3278      	adds	r2, #120	@ 0x78
 8002c7c:	7013      	strb	r3, [r2, #0]
 8002c7e:	f7fe fe4b 	bl	8001918 <HAL_UART_MspInit>
 8002c82:	2324      	movs	r3, #36	@ 0x24
 8002c84:	2101      	movs	r1, #1
 8002c86:	6822      	ldr	r2, [r4, #0]
 8002c88:	67e3      	str	r3, [r4, #124]	@ 0x7c
 8002c8a:	6813      	ldr	r3, [r2, #0]
 8002c8c:	438b      	bics	r3, r1
 8002c8e:	6013      	str	r3, [r2, #0]
 8002c90:	6a63      	ldr	r3, [r4, #36]	@ 0x24
 8002c92:	2b00      	cmp	r3, #0
 8002c94:	d002      	beq.n	8002c9c <HAL_UART_Init+0x34>
 8002c96:	0020      	movs	r0, r4
 8002c98:	f7ff fed6 	bl	8002a48 <UART_AdvFeatureConfig>
 8002c9c:	0020      	movs	r0, r4
 8002c9e:	f7ff fdf7 	bl	8002890 <UART_SetConfig>
 8002ca2:	2801      	cmp	r0, #1
 8002ca4:	d0e3      	beq.n	8002c6e <HAL_UART_Init+0x6>
 8002ca6:	6823      	ldr	r3, [r4, #0]
 8002ca8:	4907      	ldr	r1, [pc, #28]	@ (8002cc8 <HAL_UART_Init+0x60>)
 8002caa:	685a      	ldr	r2, [r3, #4]
 8002cac:	0020      	movs	r0, r4
 8002cae:	400a      	ands	r2, r1
 8002cb0:	212a      	movs	r1, #42	@ 0x2a
 8002cb2:	605a      	str	r2, [r3, #4]
 8002cb4:	689a      	ldr	r2, [r3, #8]
 8002cb6:	438a      	bics	r2, r1
 8002cb8:	609a      	str	r2, [r3, #8]
 8002cba:	2201      	movs	r2, #1
 8002cbc:	6819      	ldr	r1, [r3, #0]
 8002cbe:	430a      	orrs	r2, r1
 8002cc0:	601a      	str	r2, [r3, #0]
 8002cc2:	f7ff ff71 	bl	8002ba8 <UART_CheckIdleState>
 8002cc6:	e7d3      	b.n	8002c70 <HAL_UART_Init+0x8>
 8002cc8:	ffffb7ff 	.word	0xffffb7ff

08002ccc <memset>:
 8002ccc:	0003      	movs	r3, r0
 8002cce:	1882      	adds	r2, r0, r2
 8002cd0:	4293      	cmp	r3, r2
 8002cd2:	d100      	bne.n	8002cd6 <memset+0xa>
 8002cd4:	4770      	bx	lr
 8002cd6:	7019      	strb	r1, [r3, #0]
 8002cd8:	3301      	adds	r3, #1
 8002cda:	e7f9      	b.n	8002cd0 <memset+0x4>

08002cdc <__libc_init_array>:
 8002cdc:	b570      	push	{r4, r5, r6, lr}
 8002cde:	2600      	movs	r6, #0
 8002ce0:	4c0c      	ldr	r4, [pc, #48]	@ (8002d14 <__libc_init_array+0x38>)
 8002ce2:	4d0d      	ldr	r5, [pc, #52]	@ (8002d18 <__libc_init_array+0x3c>)
 8002ce4:	1b64      	subs	r4, r4, r5
 8002ce6:	10a4      	asrs	r4, r4, #2
 8002ce8:	42a6      	cmp	r6, r4
 8002cea:	d109      	bne.n	8002d00 <__libc_init_array+0x24>
 8002cec:	2600      	movs	r6, #0
 8002cee:	f000 f819 	bl	8002d24 <_init>
 8002cf2:	4c0a      	ldr	r4, [pc, #40]	@ (8002d1c <__libc_init_array+0x40>)
 8002cf4:	4d0a      	ldr	r5, [pc, #40]	@ (8002d20 <__libc_init_array+0x44>)
 8002cf6:	1b64      	subs	r4, r4, r5
 8002cf8:	10a4      	asrs	r4, r4, #2
 8002cfa:	42a6      	cmp	r6, r4
 8002cfc:	d105      	bne.n	8002d0a <__libc_init_array+0x2e>
 8002cfe:	bd70      	pop	{r4, r5, r6, pc}
 8002d00:	00b3      	lsls	r3, r6, #2
 8002d02:	58eb      	ldr	r3, [r5, r3]
 8002d04:	4798      	blx	r3
 8002d06:	3601      	adds	r6, #1
 8002d08:	e7ee      	b.n	8002ce8 <__libc_init_array+0xc>
 8002d0a:	00b3      	lsls	r3, r6, #2
 8002d0c:	58eb      	ldr	r3, [r5, r3]
 8002d0e:	4798      	blx	r3
 8002d10:	3601      	adds	r6, #1
 8002d12:	e7f2      	b.n	8002cfa <__libc_init_array+0x1e>
 8002d14:	08002db4 	.word	0x08002db4
 8002d18:	08002db4 	.word	0x08002db4
 8002d1c:	08002db8 	.word	0x08002db8
 8002d20:	08002db4 	.word	0x08002db4

08002d24 <_init>:
 8002d24:	b5f8      	push	{r3, r4, r5, r6, r7, lr}
 8002d26:	46c0      	nop			@ (mov r8, r8)
 8002d28:	bcf8      	pop	{r3, r4, r5, r6, r7}
 8002d2a:	bc08      	pop	{r3}
 8002d2c:	469e      	mov	lr, r3
 8002d2e:	4770      	bx	lr

08002d30 <_fini>:
 8002d30:	b5f8      	push	{r3, r4, r5, r6, r7, lr}
 8002d32:	46c0      	nop			@ (mov r8, r8)
 8002d34:	bcf8      	pop	{r3, r4, r5, r6, r7}
 8002d36:	bc08      	pop	{r3}
 8002d38:	469e      	mov	lr, r3
 8002d3a:	4770      	bx	lr
